(dp1
S'tiempo'
p2
(lp3
(lp4
F0.02
aF0.040000000000000001
aF0.059999999999999998
aF0.080000000000000002
aF0.10000000000000001
aF0.12000000000000001
aF0.14000000000000001
aF0.16
aF0.17999999999999999
aF0.19999999999999998
aF0.21999999999999997
aF0.23999999999999996
aF0.25999999999999995
aF0.27999999999999997
aF0.29999999999999999
aF0.32000000000000001
aF0.34000000000000002
aF0.36000000000000004
aF0.38000000000000006
aF0.40000000000000008
aF0.4200000000000001
aF0.44000000000000011
aF0.46000000000000013
aF0.48000000000000015
aF0.50000000000000011
aF0.52000000000000013
aF0.54000000000000015
aF0.56000000000000016
aF0.58000000000000018
aF0.6000000000000002
aF0.62000000000000022
aF0.64000000000000024
aF0.66000000000000025
aF0.68000000000000027
aF0.70000000000000029
aF0.72000000000000031
aF0.74000000000000032
aF0.76000000000000034
aF0.78000000000000036
aF0.80000000000000038
aF0.8200000000000004
aF0.84000000000000041
aF0.86000000000000043
aF0.88000000000000045
aF0.90000000000000047
aF0.92000000000000048
aF0.9400000000000005
aF0.96000000000000052
aF0.98000000000000054
aF1.0000000000000004
aF1.0200000000000005
aF1.0400000000000005
aF1.0600000000000005
aF1.0800000000000005
aF1.1000000000000005
aF1.1200000000000006
aF1.1400000000000006
aF1.1600000000000006
aF1.1800000000000006
aF1.2000000000000006
aF1.2200000000000006
aF1.2400000000000007
aF1.2600000000000007
aF1.2800000000000007
aF1.3000000000000007
aF1.3200000000000007
aF1.3400000000000007
aF1.3600000000000008
aF1.3800000000000008
aF1.4000000000000008
aF1.4200000000000008
aF1.4400000000000008
aF1.4600000000000009
aF1.4800000000000009
aF1.5000000000000009
aF1.5200000000000009
aF1.5400000000000009
aF1.5600000000000009
aF1.580000000000001
aF1.600000000000001
aF1.620000000000001
aF1.640000000000001
aF1.660000000000001
aF1.680000000000001
aF1.7000000000000011
aF1.7200000000000011
aF1.7400000000000011
aF1.7600000000000011
aF1.7800000000000011
aF1.8000000000000012
aF1.8200000000000012
aF1.8400000000000012
aF1.8600000000000012
aF1.8800000000000012
aF1.9000000000000012
aF1.9200000000000013
aF1.9400000000000013
aF1.9600000000000013
aF1.9800000000000013
aF2.0000000000000013
aF2.0200000000000014
aF2.0400000000000014
aF2.0600000000000014
aF2.0800000000000014
aF2.1000000000000014
aF2.1200000000000014
aF2.1400000000000015
aF2.1600000000000015
aF2.1800000000000015
aF2.2000000000000015
aF2.2200000000000015
aF2.2400000000000015
aF2.2600000000000016
aF2.2800000000000016
aF2.3000000000000016
aF2.3200000000000016
aF2.3400000000000016
aF2.3600000000000017
aF2.3800000000000017
aF2.4000000000000017
aF2.4200000000000017
aF2.4400000000000017
aF2.4600000000000017
aF2.4800000000000018
aF2.5000000000000018
aF2.5200000000000018
aF2.5400000000000018
aF2.5600000000000018
aF2.5800000000000018
aF2.6000000000000019
aF2.6200000000000019
aF2.6400000000000019
aF2.6600000000000019
aF2.6800000000000019
aF2.700000000000002
aF2.720000000000002
aF2.740000000000002
aF2.760000000000002
aF2.780000000000002
aF2.800000000000002
aF2.8200000000000021
aF2.8400000000000021
aF2.8600000000000021
aF2.8800000000000021
aF2.9000000000000021
aF2.9200000000000021
aF2.9400000000000022
aF2.9600000000000022
aF2.9800000000000022
aF3.0000000000000022
aF3.0200000000000022
aF3.0400000000000023
aF3.0600000000000023
aF3.0800000000000023
aF3.1000000000000023
aF3.1200000000000023
aF3.1400000000000023
aF3.1600000000000024
aF3.1800000000000024
aF3.2000000000000024
aF3.2200000000000024
aF3.2400000000000024
aF3.2600000000000025
aF3.2800000000000025
aF3.3000000000000025
aF3.3200000000000025
aF3.3400000000000025
aF3.3600000000000025
aF3.3800000000000026
aF3.4000000000000026
aF3.4200000000000026
aF3.4400000000000026
aF3.4600000000000026
aF3.4800000000000026
aF3.5000000000000027
aF3.5200000000000027
aF3.5400000000000027
aF3.5600000000000027
aF3.5800000000000027
aF3.6000000000000028
aF3.6200000000000028
aF3.6400000000000028
aF3.6600000000000028
aF3.6800000000000028
aF3.7000000000000028
aF3.7200000000000029
aF3.7400000000000029
aF3.7600000000000029
aF3.7800000000000029
aF3.8000000000000029
aF3.8200000000000029
aF3.840000000000003
aF3.860000000000003
aF3.880000000000003
aF3.900000000000003
aF3.920000000000003
aF3.9400000000000031
aF3.9600000000000031
aF3.9800000000000031
aF4.0000000000000027
aF4.0200000000000022
aF4.0400000000000018
aF4.0600000000000014
aF4.080000000000001
aF4.1000000000000005
aF4.1200000000000001
aF4.1399999999999997
aF4.1599999999999993
aF4.1799999999999988
aF4.1999999999999984
aF4.219999999999998
aF4.2399999999999975
aF4.2599999999999971
aF4.2799999999999967
aF4.2999999999999963
aF4.3199999999999958
aF4.3399999999999954
aF4.359999999999995
aF4.3799999999999946
aF4.3999999999999941
aF4.4199999999999937
aF4.4399999999999933
aF4.4599999999999929
aF4.4799999999999924
aF4.499999999999992
aF4.5199999999999916
aF4.5399999999999912
aF4.5599999999999907
aF4.5799999999999903
aF4.5999999999999899
aF4.6199999999999894
aF4.639999999999989
aF4.6599999999999886
aF4.6799999999999882
aF4.6999999999999877
aF4.7199999999999873
aF4.7399999999999869
aF4.7599999999999865
aF4.779999999999986
aF4.7999999999999856
aF4.8199999999999852
aF4.8399999999999848
aF4.8599999999999843
aF4.8799999999999839
aF4.8999999999999835
aF4.9199999999999831
aF4.9399999999999826
aF4.9599999999999822
aF4.9799999999999818
aF4.9999999999999813
aF5.0199999999999809
aF5.0399999999999805
aF5.0599999999999801
aF5.0799999999999796
aF5.0999999999999792
aF5.1199999999999788
aF5.1399999999999784
aF5.1599999999999779
aF5.1799999999999775
aF5.1999999999999771
aF5.2199999999999767
aF5.2399999999999762
aF5.2599999999999758
aF5.2799999999999754
aF5.299999999999975
aF5.3199999999999745
aF5.3399999999999741
aF5.3599999999999737
aF5.3799999999999732
aF5.3999999999999728
aF5.4199999999999724
aF5.439999999999972
aF5.4599999999999715
aF5.4799999999999711
aF5.4999999999999707
aF5.5199999999999703
aF5.5399999999999698
aF5.5599999999999694
aF5.579999999999969
aF5.5999999999999686
aF5.6199999999999681
aF5.6399999999999677
aF5.6599999999999673
aF5.6799999999999669
aF5.6999999999999664
aF5.719999999999966
aF5.7399999999999656
aF5.7599999999999651
aF5.7799999999999647
aF5.7999999999999643
aF5.8199999999999639
aF5.8399999999999634
aF5.859999999999963
aF5.8799999999999626
aF5.8999999999999622
aF5.9199999999999617
aF5.9399999999999613
aF5.9599999999999609
aF5.9799999999999605
aF5.99999999999996
aF6.0199999999999596
aF6.0399999999999592
aF6.0599999999999588
aF6.0799999999999583
aF6.0999999999999579
aF6.1199999999999575
aF6.139999999999957
aF6.1599999999999566
aF6.1799999999999562
aF6.1999999999999558
aF6.2199999999999553
aF6.2399999999999549
aF6.2599999999999545
aF6.2799999999999541
aF6.2999999999999536
aF6.3199999999999532
aF6.3399999999999528
aF6.3599999999999524
aF6.3799999999999519
aF6.3999999999999515
aF6.4199999999999511
aF6.4399999999999507
aF6.4599999999999502
aF6.4799999999999498
aF6.4999999999999494
aF6.5199999999999489
aF6.5399999999999485
aF6.5599999999999481
aF6.5799999999999477
aF6.5999999999999472
aF6.6199999999999468
aF6.6399999999999464
aF6.659999999999946
aF6.6799999999999455
aF6.6999999999999451
aF6.7199999999999447
aF6.7399999999999443
aF6.7599999999999438
aF6.7799999999999434
aF6.799999999999943
aF6.8199999999999426
aF6.8399999999999421
aF6.8599999999999417
aF6.8799999999999413
aF6.8999999999999408
aF6.9199999999999404
aF6.93999999999994
aF6.9599999999999396
aF6.9799999999999391
aF6.9999999999999387
aF7.0199999999999383
aF7.0399999999999379
aF7.0599999999999374
aF7.079999999999937
aF7.0999999999999366
aF7.1199999999999362
aF7.1399999999999357
aF7.1599999999999353
aF7.1799999999999349
aF7.1999999999999345
aF7.219999999999934
aF7.2399999999999336
aF7.2599999999999332
aF7.2799999999999327
aF7.2999999999999323
aF7.3199999999999319
aF7.3399999999999315
aF7.359999999999931
aF7.3799999999999306
aF7.3999999999999302
aF7.4199999999999298
aF7.4399999999999293
aF7.4599999999999289
aF7.4799999999999285
aF7.4999999999999281
aF7.5199999999999276
aF7.5399999999999272
aF7.5599999999999268
aF7.5799999999999264
aF7.5999999999999259
aF7.6199999999999255
aF7.6399999999999251
aF7.6599999999999246
aF7.6799999999999242
aF7.6999999999999238
aF7.7199999999999234
aF7.7399999999999229
aF7.7599999999999225
aF7.7799999999999221
aF7.7999999999999217
aF7.8199999999999212
aF7.8399999999999208
aF7.8599999999999204
aF7.87999999999992
aF7.8999999999999195
aF7.9199999999999191
aF7.9399999999999187
aF7.9599999999999183
aF7.9799999999999178
aF7.9999999999999174
aF8.0199999999999179
aF8.0399999999999174
aF8.059999999999917
aF8.0799999999999166
aF8.0999999999999162
aF8.1199999999999157
aF8.1399999999999153
aF8.1599999999999149
aF8.1799999999999145
aF8.199999999999914
aF8.2199999999999136
aF8.2399999999999132
aF8.2599999999999127
aF8.2799999999999123
aF8.2999999999999119
aF8.3199999999999115
aF8.339999999999911
aF8.3599999999999106
aF8.3799999999999102
aF8.3999999999999098
aF8.4199999999999093
aF8.4399999999999089
aF8.4599999999999085
aF8.4799999999999081
aF8.4999999999999076
aF8.5199999999999072
aF8.5399999999999068
aF8.5599999999999064
aF8.5799999999999059
aF8.5999999999999055
aF8.6199999999999051
aF8.6399999999999046
aF8.6599999999999042
aF8.6799999999999038
aF8.6999999999999034
aF8.7199999999999029
aF8.7399999999999025
aF8.7599999999999021
aF8.7799999999999017
aF8.7999999999999012
aF8.8199999999999008
aF8.8399999999999004
aF8.8599999999999
aF8.8799999999998995
aF8.8999999999998991
aF8.9199999999998987
aF8.9399999999998983
aF8.9599999999998978
aF8.9799999999998974
aF8.999999999999897
aF9.0199999999998965
aF9.0399999999998961
aF9.0599999999998957
aF9.0799999999998953
aF9.0999999999998948
aF9.1199999999998944
aF9.139999999999894
aF9.1599999999998936
aF9.1799999999998931
aF9.1999999999998927
aF9.2199999999998923
aF9.2399999999998919
aF9.2599999999998914
aF9.279999999999891
aF9.2999999999998906
aF9.3199999999998902
aF9.3399999999998897
aF9.3599999999998893
aF9.3799999999998889
aF9.3999999999998884
aF9.419999999999888
aF9.4399999999998876
aF9.4599999999998872
aF9.4799999999998867
aF9.4999999999998863
aF9.5199999999998859
aF9.5399999999998855
aF9.559999999999885
aF9.5799999999998846
aF9.5999999999998842
aF9.6199999999998838
aF9.6399999999998833
aF9.6599999999998829
aF9.6799999999998825
aF9.699999999999882
aF9.7199999999998816
aF9.7399999999998812
aF9.7599999999998808
aF9.7799999999998803
aF9.7999999999998799
aF9.8199999999998795
aF9.8399999999998791
aF9.8599999999998786
aF9.8799999999998782
aF9.8999999999998778
aF9.9199999999998774
aF9.9399999999998769
aF9.9599999999998765
aF9.9799999999998761
aF9.9999999999998757
aF10.019999999999875
aasS'control'
p5
(lp6
(lp7
F0.14368336620186978
aF0.086028731259459701
aF0.099478773840869908
aF0.094541431420087682
aF0.075286173423470562
aF0.042722111337738851
aF0.0062310952554982943
aF-0.037305202331107033
aF-0.076148716035666059
aF-0.10966964562147136
aF-0.13435096647671399
aF-0.14774425738608937
aF-0.15701525272225159
aF-0.14745436736815906
aF-0.14259801703751998
aF-0.13926268843097814
aF-0.14163538813597967
aF-0.1516676233690592
aF-0.19586552778657862
aF-0.25681200219637579
aF-0.34025485314312054
aF-0.40031150703579116
aF-0.48497139737537504
aF-0.58725915013481633
aF-0.66308591367557046
aF-0.77036925233501641
aF-0.85054766124673931
aF-0.99590708348457413
aF-0.94674754258568639
aI-1
aI-1
aI-1
aI-1
aI-1
aI-1
aI-1
aI-1
aI-1
aI-1
aI-1
aI-1
aI-1
aI-1
aI-1
aI-1
aI-1
aI-1
aI-1
aI-1
aI-1
aI-1
aF-0.99056573004869275
aF-0.88013138258904955
aF-0.74160298879872466
aF-0.63031635277679288
aF-0.4973312847978133
aF-0.37828050826982207
aF-0.24833439120026346
aF-0.12746248601946211
aF-0.0057813522096373353
aF0.10869872478982595
aF0.22337386280000218
aF0.33290754896900526
aF0.43846301763994427
aF0.53943560699795634
aF0.63427013568346602
aF0.72796993174391089
aF0.81535250125570413
aF0.89751677881781267
aF0.97939742841271948
aI1
aI1
aI1
aI1
aI1
aI1
aI1
aI1
aI1
aI1
aI1
aI1
aI1
aI1
aI1
aI1
aI1
aI1
aI1
aI1
aI1
aI1
aI1
aI1
aI1
aI1
aI1
aI1
aI1
aI1
aI1
aI1
aI1
aI1
aI1
aI1
aI1
aI1
aI1
aI1
aI1
aI1
aF0.98801308350234962
aF0.92379453475686857
aF0.85976207851489705
aF0.78828581315842972
aF0.71552563546185821
aF0.63601429328493053
aF0.56585022651291372
aF0.47087870056412484
aF0.40546947456433169
aF0.32711145777957606
aF0.24437200556371977
aF0.15950738478428814
aF0.075085085833726528
aF-0.010859600927579986
aF-0.093261775864323992
aF-0.18244878294358408
aF-0.27070730504200391
aF-0.35265755262895249
aF-0.43663815678766449
aF-0.52537459703019063
aF-0.60037643028576992
aF-0.68340652066856533
aF-0.75711176451854145
aF-0.83314062258470534
aF-0.90581710695614337
aF-0.98304869825282626
aI-1
aI-1
aI-1
aI-1
aI-1
aI-1
aI-1
aI-1
aI-1
aI-1
aI-1
aI-1
aI-1
aI-1
aI-1
aI-1
aI-1
aI-1
aI-1
aI-1
aI-1
aI-1
aI-1
aI-1
aI-1
aI-1
aI-1
aI-1
aI-1
aI-1
aI-1
aI-1
aI-1
aI-1
aI-1
aI-1
aI-1
aI-1
aI-1
aI-1
aI-1
aI-1
aI-1
aI-1
aI-1
aI-1
aI-1
aI-1
aI-1
aI-1
aI-1
aI-1
aI-1
aI-1
aI-1
aI-1
aI-1
aI-1
aI-1
aI-1
aI-1
aI-1
aI-1
aI-1
aI-1
aI-1
aI-1
aI-1
aI-1
aI-1
aI-1
aI-1
aI-1
aI-1
aI-1
aI-1
aI-1
aI-1
aI-1
aI-1
aI-1
aF-0.96986239947867203
aF-0.91704705951975685
aF-0.86202385665803416
aF-0.80774964327148946
aF-0.74862341980281322
aF-0.69659692793019334
aF-0.6360335451690603
aF-0.58344559078529357
aF-0.53272577638562912
aF-0.47852467284231948
aF-0.42452946420791515
aF-0.38058373441393667
aF-0.33480756427610042
aF-0.29058681080051868
aF-0.2476330589652628
aF-0.19513418671059551
aF-0.13172772453318379
aF-0.1543419629139571
aF-0.11157503271469124
aF-0.10907507107694171
aF-0.13065980735101382
aF-0.039159573360203245
aF0.056436124791220871
aF0.035492697383477233
aF0.015535072904813629
aF0.10189622457241855
aF0.19673909383161176
aF0.22319494568875831
aF0.24806236585468025
aF0.2732562757829613
aF0.30015789759335854
aF0.31048939790010022
aF0.32684349107326349
aF0.34381437586822627
aF0.3555033949635773
aF0.36541692012242377
aF0.37823967592252628
aF0.38775216233615406
aF0.39653526956859642
aF0.40623772551400777
aF0.40926190044380184
aF0.41234876265782777
aF0.4138944558211628
aF0.41355325322331016
aF0.40931683311069877
aF0.40441747741379569
aF0.39635941279951953
aF0.38657388435884371
aF0.37361911355819777
aF0.35377795411647783
aF0.33142306146683165
aF0.31712066574007636
aF0.30134835371950325
aF0.2850771426572038
aF0.26025116494172995
aF0.2451897013338824
aF0.2164607279677325
aF0.20230815738174457
aF0.16929163151993931
aF0.14715505830323114
aF0.12076771100641744
aF0.097816678033368562
aF0.067599078295058138
aF0.048698044885175214
aF0.022619598717544983
aF-0.0015510004772413878
aF-0.027662418298277997
aF-0.053690956761498147
aF-0.074684233309956216
aF-0.10068528379353059
aF-0.1202796343308986
aF-0.13553465701510362
aF-0.14901319861856033
aF-0.17344284004571811
aF-0.19702758822605593
aF-0.21598357589573158
aF-0.23323091695424891
aF-0.25370603809236175
aF-0.26367622916653799
aF-0.2816026539615053
aF-0.29149646024652959
aF-0.29887965173174963
aF-0.30322982564127843
aF-0.30408007893227945
aF-0.30511121438695266
aF-0.3021525296956597
aF-0.29825061039695788
aF-0.29359717002109492
aF-0.28831666697481712
aF-0.28247766619327369
aF-0.2781344739086864
aF-0.27125200184493947
aF-0.2642427244165268
aF-0.25509541811058739
aF-0.26331078185366058
aF-0.2274991621882792
aF-0.24161926322793675
aF-0.25054432423885098
aF-0.20809506440927866
aF-0.22378515587633996
aF-0.18347652045628693
aF-0.19753632506328567
aF-0.13743226318219395
aF-0.13525907083491548
aF-0.12493592048370972
aF-0.10410018427239758
aF-0.087942128476649409
aF-0.071523829946270198
aF-0.050381380593952058
aF-0.033164769040526246
aF-0.009806329351684389
aF0.0052417799037080123
aF0.020324245282961447
aF0.038382028552807201
aF0.047346942440206978
aF0.059062302475683531
aF0.068168253463990233
aF0.073472025474926442
aF0.078811577297677557
aF0.079677396271061213
aF0.087978218239311026
aF0.093437804354733062
aF0.10275392690871282
aF0.10707965446239529
aF0.11635267246635037
aF0.12628095457106758
aF0.13629494498870426
aF0.14284147514062831
aF0.14934603610521224
aF0.16641880742659901
aF0.16803449543900451
aF0.1845460166384367
aF0.18051685863710054
aF0.18761005097650055
aF0.19717631952516509
aF0.21122028874953061
aF0.21976128804756073
aF0.22073603137669326
aF0.24711649095709087
aF0.23856734388137599
aF0.27122409621969706
aF0.25209217440790288
aF0.27144286937931561
aF0.27375698699400042
aF0.27799389374256345
aF0.27609207856227291
aF0.27446012558471328
aF0.27262124684224737
aF0.27295818250065129
aF0.26789797922617486
aF0.26456549117811423
aF0.25911391139772882
aF0.26105484040511973
aF0.25683546840292015
aF0.24958562513786109
aF0.2434827352405394
aF0.23927412088455724
aF0.22865351649726873
aF0.22216134218225791
aF0.21970596004361323
aF0.20882564727779723
aF0.21316987227041886
aF0.20902834259743452
aF0.20823903778061451
aF0.20972553943648839
aF0.21076561850464534
aF0.21156874987257296
aF0.21256721858923017
aF0.21371316335988383
aF0.21552972927511715
aF0.21547846448629002
aF0.21948016453708794
aF0.22036900967699036
aF0.22235472935579967
aF0.22395966719361421
aF0.22837864783500741
aF0.23014945320291036
aF0.22974305738639331
aF0.24198265305589492
aF0.24478869911707354
aF0.2504081405024477
aF0.25424021076906039
aF0.25856120376082364
aF0.26369532309057753
aF0.26668590742417625
aF0.26998547215628743
aF0.27209267742954457
aF0.27510718370286358
aF0.27467471539135158
aF0.29037611000326879
aF0.31438060504627985
aF0.2681050716349494
aF0.28513562221201016
aF0.28720453618252662
aF0.29124810551324404
aF0.29128102401490186
aF0.29814923635999274
aF0.2948199414060842
aF0.31002431954869014
aF0.31302988789271102
aF0.31837350278397436
aF0.32115587088929742
aF0.3271191368392552
aF0.32339842966396676
aF0.32273995691307239
aF0.3194079315236244
aF0.31381260862679827
aF0.30600208262075479
aF0.29626202229758408
aF0.29327582350476555
aF0.28614048918671026
aF0.288586355619117
aF0.30980630913211044
aF0.33034750342860258
aF0.30118830144858727
aF0.26795222126740748
aF0.27853037671278469
aF0.27908528238134511
aF0.2807754970981633
aF0.2853256999677875
aF0.29078871192767414
aF0.29875100518184367
aF0.30804661281902979
aF0.31634428172972229
aF0.32562531249372256
aF0.33462140764024073
aF0.34322539992636192
aF0.33617379800368835
aF0.37218647605767435
aF0.35295439880393115
aF0.34929636701062178
aF0.34986615478721511
aF0.35668522010275844
aF0.3529751856650063
aF0.35345194295581001
aF0.35188151530138984
aF0.35014348255713895
aF0.35209953374181918
aF0.35103056957562145
aF0.35379203774973184
aF0.35142272443614692
aF0.36058775764273276
aF0.37156156312750993
aF0.34104866782920029
aF0.3648153897313669
aF0.35125278367873769
aF0.34048365284748638
aF0.35086329198729088
aF0.35053699382502401
aF0.3507521695169829
aF0.35209182595117544
aF0.37176579602552212
aF0.39888454862319894
aF0.36759854601241787
aF0.40413494541054346
aF0.37066612271864302
aF0.40405958324209967
aF0.34671793586607125
aF0.34867373713209926
aF0.34638797938804206
aF0.34139607443174569
aF0.337880554459841
aF0.3294427369866873
aF0.32512869013475038
aF0.32526975836180166
aF0.32629292270291976
aF0.3216393291173858
aF0.32115574200499819
aF0.31823238640072549
aF0.31606116569262466
aF0.30771273926316012
aF0.30787757588628256
aF0.29659627745428196
aF0.29908866160635006
aF0.29033978590083265
aF0.28671720726087979
aF0.28026349081093738
aF0.27540148785797181
aF0.26344206250670726
aF0.25775076711821204
aF0.2577529404545047
aF0.25291839281357148
aa(lp8
F-0.13919231576775201
aF-0.096245475339000491
aF-0.10470856840517939
aF-0.11227340411762821
aF-0.1211748905654355
aF-0.12554645334071471
aF-0.1417603073118868
aF-0.14613524387806609
aF-0.15646112251726579
aF-0.16703420761284921
aF-0.17790452453297967
aF-0.18812855191600331
aF-0.20634614260193615
aF-0.2074287698461712
aF-0.22425286058668284
aF-0.23681451650199123
aF-0.24538610180647766
aF-0.24515493516549003
aF-0.27497233317823899
aF-0.28833189016651212
aF-0.30196588971445321
aF-0.31586965436097081
aF-0.32324689717465582
aF-0.34466818406363603
aF-0.351125076382868
aF-0.37690192112629106
aF-0.38766168229686343
aF-0.43083626899028699
aF-0.38934850706871088
aF-0.44101406259661086
aF-0.42815835560308518
aF-0.49577571564191314
aF-0.47910221380663853
aF-0.48878885249504
aF-0.52070177136123108
aF-0.53096014983163464
aF-0.55695524073574088
aF-0.5688468373083555
aF-0.57557590411060933
aF-0.57106319853812826
aF-0.58079296989233642
aF-0.56574552483368568
aF-0.57387120625691035
aF-0.56696373769054986
aF-0.5577685686833691
aF-0.54519423505632914
aF-0.54024262072869111
aF-0.50015259968985593
aF-0.49462306206692297
aF-0.46783718176368055
aF-0.45042076822213073
aF-0.42706663146251711
aF-0.40326144065447628
aF-0.36770991305733308
aF-0.33488179968003157
aF-0.31865987486997277
aF-0.29600245300038597
aF-0.26707221935884196
aF-0.24886448802204017
aF-0.22242571098599884
aF-0.21417968656915423
aF-0.20248268330376815
aF-0.19284884336336108
aF-0.18582266023685834
aF-0.18125696614346179
aF-0.17910475307218904
aF-0.17896571611744744
aF-0.18032830156730237
aF-0.18437292423577978
aF-0.18928176053779325
aF-0.19588823400316749
aF-0.2041428929211401
aF-0.21192646535668247
aF-0.22566085437625816
aF-0.2318384474391714
aF-0.24055847147026688
aF-0.25011482237336247
aF-0.26025841423182566
aF-0.26729507192267415
aF-0.2746644746712118
aF-0.28080792487179584
aF-0.28642225194431886
aF-0.29036809035291228
aF-0.29260038321655552
aF-0.29413402560476437
aF-0.29403919991068317
aF-0.29311262027866536
aF-0.28531880506543861
aF-0.29693494321443864
aF-0.28045756210007006
aF-0.28535686890991824
aF-0.28274077259508357
aF-0.27909737536423268
aF-0.27640503982647036
aF-0.27094641259698682
aF-0.27216492151307314
aF-0.26990103986096842
aF-0.26489386544993498
aF-0.26101547194860686
aF-0.26525015707313632
aF-0.2618686992957156
aF-0.26320006650853911
aF-0.25584074552367564
aF-0.26572984948480582
aF-0.26178329203064221
aF-0.26880091856563521
aF-0.26517828732952797
aF-0.26632108224576351
aF-0.2683538867211599
aF-0.27104992983731518
aF-0.27212100969400682
aF-0.27409151741276033
aF-0.27580863274156792
aF-0.27819514444111471
aF-0.2804252719432479
aF-0.28037461578131428
aF-0.28086000282826595
aF-0.27946244249718349
aF-0.27966617738528704
aF-0.27385287473959929
aF-0.2756982433169376
aF-0.27418800483454225
aF-0.27046958543891036
aF-0.26923680234711045
aF-0.26765314496907033
aF-0.26497217972072823
aF-0.26305815130530019
aF-0.2595664556587402
aF-0.25579913156449152
aF-0.25289730193107424
aF-0.24972542328499361
aF-0.24641718812216692
aF-0.24661621915134507
aF-0.24629121244903684
aF-0.24395151099042711
aF-0.24322283579973944
aF-0.2416469778841222
aF-0.24368792169174239
aF-0.24276326005538296
aF-0.24377675495604562
aF-0.24571911345092115
aF-0.24571374068774271
aF-0.24639725276682517
aF-0.24738632141106792
aF-0.24883397308497468
aF-0.24865512786036548
aF-0.2498689153733292
aF-0.25449462416673074
aF-0.26333446673448208
aF-0.26549256083582129
aF-0.25809659923830602
aF-0.25537980094499285
aF-0.26366803876449707
aF-0.26584752299524189
aF-0.25375743189754563
aF-0.24465964054349507
aF-0.24173347593100458
aF-0.23893905733887247
aF-0.23584141976484235
aF-0.23245096424765915
aF-0.22856909289826471
aF-0.22542552812513095
aF-0.22231259275643275
aF-0.21825588830263837
aF-0.21665569218219616
aF-0.2143095903005908
aF-0.21293529489922092
aF-0.21026840820930537
aF-0.20848625657999409
aF-0.20656570814414257
aF-0.20289983523490535
aF-0.20299541623750608
aF-0.20263223290962526
aF-0.19807494857348146
aF-0.19640496650268394
aF-0.19412037847522695
aF-0.19017009987672726
aF-0.1827628944150127
aF-0.17871453590520794
aF-0.17541904266679423
aF-0.17139804756235139
aF-0.16781306233635732
aF-0.16487522462594639
aF-0.16096590206356812
aF-0.15844852112857141
aF-0.1567279117871932
aF-0.15419694681977764
aF-0.15263521283527798
aF-0.15284128185335047
aF-0.15151871860726268
aF-0.14987612314635521
aF-0.15042744861888738
aF-0.14667700689093621
aF-0.14659066018022782
aF-0.14176369746745549
aF-0.13877073409563923
aF-0.13491942424256662
aF-0.13363244680124078
aF-0.13144165429341953
aF-0.12935289234447706
aF-0.12577053543899497
aF-0.12741515593429095
aF-0.12385847806388742
aF-0.1222387559182984
aF-0.12218957172423613
aF-0.11940760030342465
aF-0.11089787022499085
aF-0.10207517484001037
aF-0.098800397042107913
aF-0.094186294095031264
aF-0.089659559100922076
aF-0.085503099330907648
aF-0.078704832361647825
aF-0.07443327030273604
aF-0.067728573190405303
aF-0.064935638920910407
aF-0.063604775364575608
aF-0.05961857162114742
aF-0.05881805012765489
aF-0.056006394270383973
aF-0.054448818927126219
aF-0.053299585319802667
aF-0.053160568954683497
aF-0.052060063284895534
aF-0.050186428346999608
aF-0.04738503676629037
aF-0.04481992757749078
aF-0.041062156818272882
aF-0.039341524035862344
aF-0.035159692261599977
aF-0.03080310625741382
aF-0.026858232737875055
aF-0.023201166075896569
aF-0.02022509361008799
aF-0.020363446306268036
aF-0.017692038996981605
aF-0.011374362500080315
aF-0.0085721250543021304
aF-0.0069642725447326467
aF-0.004985091182330207
aF0.0014400400967867278
aF0.0082208120671236652
aF0.010383877345379109
aF0.0069978737884424198
aF0.019140480584511531
aF0.023534897339429428
aF0.026209054174618617
aF0.030710695035907464
aF0.033738437441934846
aF0.035835191996463921
aF0.042068436108719957
aF0.046706836208159179
aF0.050188335276963703
aF0.053210921205875408
aF0.056858615708671109
aF0.059516558319993453
aF0.061044939816128858
aF0.061707114655664717
aF0.058079017488312693
aF0.062532340594613309
aF0.06357451340913288
aF0.065030777302243437
aF0.066193539600704759
aF0.068035559535113532
aF0.070899976577174659
aF0.07358956506005436
aF0.074132559253101651
aF0.077303884251586505
aF0.085436936976058336
aF0.088649614744300789
aF0.092151164348455189
aF0.095664181815031613
aF0.1053269319654446
aF0.10544039840213131
aF0.11546822648423329
aF0.11420437566641138
aF0.12102640154520006
aF0.12335145750176044
aF0.1278440918361754
aF0.12764151254246614
aF0.1346236300025043
aF0.13192488505562047
aF0.14069193507338376
aF0.14163539010442103
aF0.13953949219290873
aF0.13952766566166724
aF0.13973557238840636
aF0.14651477458592871
aF0.14332466752452397
aF0.1514268940400097
aF0.15745683060764701
aF0.16126903123876438
aF0.16081016507991319
aF0.15923506552422675
aF0.17008572814990669
aF0.16343600003838996
aF0.17585614747367756
aF0.16560198642379451
aF0.17143595627608815
aF0.17375900057027302
aF0.17620987878388811
aF0.17887090352505289
aF0.17728272525631775
aF0.18451163304196558
aF0.1866041486089961
aF0.18905523010872977
aF0.19139472234868768
aF0.19340932058046117
aF0.19463952442961518
aF0.19671010839375294
aF0.1979424620982109
aF0.19927264204782316
aF0.20102394737143084
aF0.21149320832752114
aF0.19129497167815146
aF0.21400385155586282
aF0.22426733244390792
aF0.20661701807155702
aF0.22717062350797243
aF0.21221082380689729
aF0.23051990175666706
aF0.20261334663271799
aF0.21984349541964004
aF0.22222053474428663
aF0.22139974189295972
aF0.22373590900783513
aF0.22852380127190783
aF0.2285493470306971
aF0.23378188069823366
aF0.23068383373136092
aF0.24014898937442811
aF0.24172037630696638
aF0.24035767730068106
aF0.24520974213963317
aF0.24444730738518819
aF0.24081617799688956
aF0.25001304836122873
aF0.25156878921914111
aF0.25522874989642536
aF0.25195561248278148
aF0.25364935244956621
aF0.25360204077831822
aF0.25549651387599787
aF0.25408587835538604
aF0.25048614211833542
aF0.26145622050125217
aF0.2734018327310177
aF0.25204832126266535
aF0.27184357574755347
aF0.24528639836766766
aF0.26832402811369471
aF0.23896547986399483
aF0.2286340184001471
aF0.22851646007129039
aF0.24180040311006337
aF0.24765914598535438
aF0.23644509205071834
aF0.25681318144576809
aF0.23407205974888903
aF0.25907023940824608
aF0.2311464540886923
aF0.24235081980826617
aF0.24281591547544393
aF0.24753239867808041
aF0.24848767680464154
aF0.25094458060357733
aF0.25242072336825933
aF0.25618060651349051
aF0.25762924409565852
aF0.25668958170306694
aF0.25661901665983278
aF0.25922915267045876
aF0.25934673027086108
aF0.25853510675355357
aF0.25884487049055366
aF0.25913633397546121
aF0.25511684560448583
aF0.25610274702368435
aF0.25614953807880098
aF0.25100009803891565
aF0.25463129712418348
aF0.25438482658058242
aF0.25330251982996438
aF0.25370123423337726
aF0.25291115564157113
aF0.25188997140185609
aF0.25094753337019232
aF0.25047401499141592
aF0.24976042559953909
aF0.24695499980084362
aF0.24707427072470151
aF0.24409014147035271
aF0.24140022853700602
aF0.23825280980272703
aF0.23725028338526669
aF0.23456229719836386
aF0.22981518220338615
aF0.23417364573229363
aF0.23088070714499581
aF0.2292466364889208
aF0.22621024752858931
aF0.224291690513193
aF0.22318664092809684
aF0.22203601798750885
aF0.22137513950431217
aF0.22031758985609162
aF0.22054696897148207
aF0.21772811740161696
aF0.22364551638052635
aF0.23316630221503873
aF0.20466595386163136
aF0.21077908982993152
aF0.20778836038698212
aF0.2058772779787561
aF0.20160661845308422
aF0.19946628099792074
aF0.19232673977640979
aF0.19554357617132825
aF0.19206574442362068
aF0.19042864835752976
aF0.1886843572520045
aF0.18771174966524296
aF0.1845640155923477
aF0.18319795156522684
aF0.18165228367672503
aF0.17951528450536358
aF0.17635470235388562
aF0.17446367036334534
aF0.17325629734642001
aF0.1714726946369329
aF0.17228190219600745
aF0.17754062301844248
aF0.17999499579545178
aF0.17729068210325968
aF0.16228858349851796
aF0.16533785040499532
aF0.16200007575947065
aF0.15795556370239225
aF0.15350655830922963
aF0.1495747811944752
aF0.14631989280575439
aF0.14396721869942436
aF0.14003537902407867
aF0.13635575517956866
aF0.13228280242976673
aF0.12862521497695492
aF0.12107964061098701
aF0.12574484077567133
aF0.11477731335146665
aF0.11118109244940662
aF0.10909067185385729
aF0.10662468259269545
aF0.10335670306836187
aF0.10194679897979692
aF0.09997066398709252
aF0.098008498367282718
aF0.096357656427427843
aF0.096166814478004278
aF0.091268663179422227
aF0.091618723358815088
aF0.095114461610046913
aF0.09236108777337218
aF0.083226990427771291
aF0.082932348190155089
aF0.077862665270538534
aF0.075804369383086684
aF0.077258833488355563
aF0.071743480147517344
aF0.070235834544244938
aF0.068558044681903491
aF0.070465808865218735
aF0.073497759822243811
aF0.066309737856415724
aF0.06937955142162068
aF0.063562071401134956
aF0.062967270201725267
aF0.050899862042120048
aF0.048447089188745122
aF0.044633440525214389
aF0.040452135495800859
aF0.036629626069959474
aF0.034960774719151197
aF0.031716571480081987
aF0.028694567801009728
aF0.023648745800164267
aF0.021098161322989032
aF0.015125007713754404
aF0.010741283393576584
aF0.0071779854098243841
aF0.0061150067018315522
aF0.00022356603601394421
aF-0.00025853919034972574
aF-0.0068921780604912714
aF-0.010854502065060688
aF-0.014333495662132783
aF-0.017651999113304739
aF-0.020424290054808121
aF-0.019198581167313697
aF-0.021153400111214266
aF-0.026944415919667491
aF-0.025096070271250229
aa(lp9
F0.061664113525969275
aF0.061586311771436135
aF0.061510328456584815
aF0.061532919552769252
aF0.06152942831502773
aF0.061535653454075787
aF0.061525991172745848
aF0.061546830408275709
aF0.061557204252959408
aF0.061555381652088396
aF0.061606722404478072
aF0.061598275190395478
aF0.061592025084212201
aF0.061634402635058087
aF0.061706682491518519
aF0.061694835585856873
aF0.061702067732692108
aF0.061753745541407265
aF0.061739406083412864
aF0.061791653975048856
aF0.061819267626601615
aF0.061846964501938446
aF0.06192162039743393
aF0.061933479786663193
aF0.061972665705390173
aF0.062010540849518146
aF0.062057354228054695
aF0.062091355305034443
aF0.062157272703203106
aF0.062164117859442453
aF0.062248860477566621
aF0.062241982031813643
aF0.062302868552235581
aF0.062405712343393878
aF0.062402811994519206
aF0.062449916656299988
aF0.062482228290463217
aF0.062515043428520031
aF0.060701613818501018
aF0.059216031822238363
aF0.057736333747509097
aF0.058205062582930664
aF0.055277125023848704
aF0.053773262923416179
aF0.053600893983049999
aF0.052957345266821547
aF0.050824128266532861
aF0.049227588160165585
aF0.049096785338750649
aF0.047534912099635639
aF0.046193186575318498
aF0.043471673129042106
aF0.042350769432173765
aF0.03981267704478738
aF0.036588804031948766
aF0.036735436017092844
aF0.033677346862706271
aF0.032315728773403003
aF0.028637071070162924
aF0.025902245979625337
aF0.025099057400803457
aF0.024272659789200454
aF0.023250107879745505
aF0.021374393589732258
aF0.020043553736370817
aF0.019518790327138311
aF0.018864782461847501
aF0.019562320527393498
aF0.018107325352369325
aF0.018315366087180349
aF0.018481033432334697
aF0.019170756784556989
aF0.018844099270912754
aF0.017511428494301887
aF0.018303136352112004
aF0.015474048882850517
aF0.014918579018189942
aF0.013328686411574848
aF0.01292244719471578
aF0.011454041547186836
aF0.011570116879714161
aF0.011857771566956344
aF0.0092928540733712081
aF0.0092646079210595561
aF0.010922597348688516
aF0.0085107107089447583
aF0.0075263195052268543
aF0.0076816374526840672
aF0.0085215152367109932
aF0.0072167400322214028
aF0.0068244740887068445
aF0.0060370985490059582
aF0.0069064120653080175
aF0.005079119453458375
aF0.0066791221893914132
aF0.0053979034769814126
aF0.0057896367882779541
aF0.0072837559843397246
aF0.0073505602359573308
aF0.007723309161811351
aF0.0073182850121996327
aF0.0074120085169217063
aF0.0083957152050156761
aF0.0081732855980884665
aF0.0085537701746713247
aF0.0077658047864008796
aF0.0091519718114087163
aF0.0090240308478683282
aF0.0087224632245250806
aF0.0075595601248797063
aF0.010323938501287417
aF0.0096082045956529163
aF0.0086749481654591343
aF0.0078334209900617711
aF0.0069565023803421248
aF0.0070114165539600978
aF0.0057649333684242172
aF0.0057635612162844473
aF0.0065163957647064652
aF0.0058401427020837371
aF0.0058424864919024667
aF0.0065203306892467868
aF0.0070124480087338523
aF0.007161656290143396
aF0.0061410419344112115
aF0.0064752504460133904
aF0.0056480804136645356
aF0.0059083976482873259
aF0.0054944545097670942
aF0.0057677166838525406
aF0.0058214610431557515
aF0.0053630649606745129
aF0.0040599940232379774
aF0.0029101037424541362
aF0.0051235541922166174
aF0.0060517500961905979
aF0.0086210264354661358
aF0.0060610841637221352
aF0.0064044067199767307
aF0.0063971220381277933
aF0.0050205387520036882
aF0.0085786187159985275
aF0.0080072531085815385
aF0.0070009256758300576
aF0.0056099129459950374
aF0.006068769880180536
aF0.0070055170279671921
aF0.0078909067786073518
aF0.00789486198894504
aF0.0091829789127567257
aF0.0084980190818748479
aF0.0092810914317909259
aF0.010189568500428011
aF0.0085413214570211581
aF0.0092816750385766797
aF0.0095535120053600146
aF0.010050053189118786
aF0.009012353510666711
aF0.0095797951166650356
aF0.0094686622366138701
aF0.0088449322242631981
aF0.0082914035543659361
aF0.009390291439457181
aF0.0089504568615656858
aF0.0084249433979792961
aF0.0076857086561707951
aF0.0084804729074507007
aF0.0088956030251911584
aF0.0088626640917555417
aF0.0085511408232435224
aF0.0080462496931997841
aF0.0063644364170849241
aF0.0072573792462776315
aF0.0063079040610155368
aF0.0080989761215941505
aF0.0070993846138654292
aF0.007339885745353698
aF0.0080234807061769064
aF0.0054543422062937269
aF0.0065163744386117989
aF0.0045847316851122862
aF0.0040381480399952468
aF0.0032391471779577839
aF0.0039800263697245437
aF0.0046239701388529715
aF0.004271626124405732
aF0.0034972168502621693
aF0.0020568767334260248
aF0.0029543949201848662
aF0.0024572813128363245
aF0.0022932378717685493
aF0.0025803451025561805
aF0.003217382077830191
aF0.0043730665545052309
aF0.0040183212738133921
aF0.0036826144740237168
aF0.0034585398969895981
aF0.0038316573481624303
aF0.0031683913570430423
aF0.0053149652545255088
aF0.003462146087582863
aF0.0019288134049156281
aF0.0036680747587989151
aF0.0029269287307744974
aF0.003957426431013049
aF0.0051288966390049383
aF0.0055291239777626117
aF0.0035696808393448454
aF0.0047595042323919888
aF0.004552482988935758
aF0.0050099412434003142
aF0.0062397422214203711
aF0.0051828313727141969
aF0.0044235298161216796
aF0.0037768669699232539
aF0.0037196651825407941
aF0.0047948171242680592
aF0.0044250611337484751
aF0.0049173074501008412
aF0.0039127469623147903
aF0.0036477972838114838
aF0.0048725772669091687
aF0.0062431003011073922
aF0.0066414722696290672
aF0.0064599882443131754
aF0.0062420339963740598
aF0.0059423368275776742
aF0.0044571324592352149
aF0.0066979749772253811
aF0.0065436827629067685
aF0.0057208538911942032
aF0.0051883876005978345
aF0.0054207374825855905
aF0.0059198320760692046
aF0.0073060792039692036
aF0.0054532368904116136
aF0.0054532368904116136
aF0.0064642529430978552
aF0.0054664611496995381
aF0.0042472873287559302
aF0.0048770890363027918
aF0.0052865823031187998
aF0.0060910832169856566
aF0.0080075386701906111
aF0.0080075386701906111
aF0.011672020242112521
aF0.012806170044512098
aF0.012352195745707961
aF0.014169421400577644
aF0.013976910223873141
aF0.01438731167023276
aF0.013945393376847736
aF0.01559774127221439
aF0.015052770087913609
aF0.014530816521690601
aF0.013220255183613892
aF0.014609307993334181
aF0.013944406134709264
aF0.015556932489698128
aF0.016240594029548593
aF0.014970347332770258
aF0.014336211226519562
aF0.014030234823215474
aF0.015186648028149735
aF0.013644669434615449
aF0.012061550203725943
aF0.011538087166119454
aF0.011537853099226772
aF0.010946116390065279
aF0.010891684914394881
aF0.01199330357990076
aF0.011710532048188588
aF0.012513057957629851
aF0.012011584724367934
aF0.011720342051735246
aF0.0093523882073020901
aF0.0080554729690687846
aF0.0083451063017771134
aF0.0095760926985714451
aF0.010126639876404581
aF0.0096954043960015973
aF0.0097101537311325113
aF0.0099392407206362696
aF0.010555229880771597
aF0.012131829568476913
aF0.013185842148903023
aF0.014565991054025661
aF0.014549521067159203
aF0.014646883531839516
aF0.014061386525888297
aF0.013563550171990015
aF0.014823408459922437
aF0.013628081894153998
aF0.012324222151289121
aF0.011032929199818057
aF0.010164521262316355
aF0.011493612375915129
aF0.010522615520093833
aF0.010726395197160734
aF0.011411391438448137
aF0.012692309504938201
aF0.013433660731605205
aF0.011839439447921431
aF0.011742669952702579
aF0.012069989095430131
aF0.011231299330920732
aF0.011816279309113449
aF0.01109086647739219
aF0.012425209011765465
aF0.011901262235914098
aF0.011933186879481424
aF0.013513801074470574
aF0.013272741303331769
aF0.012750077214052304
aF0.010917615364914925
aF0.010917615364914925
aF0.010620156915909888
aF0.010887426977542657
aF0.010226681106634486
aF0.010284020213260652
aF0.012278289904566359
aF0.01205834504774214
aF0.011332304916748491
aF0.010835971792449883
aF0.0088294744466704284
aF0.0095800312641523191
aF0.0098983351904710325
aF0.0099017234387797793
aF0.010561637071847299
aF0.011278521546296501
aF0.010704724764087514
aF0.011647079114325547
aF0.013124439641019883
aF0.013138169484796004
aF0.012382522492621239
aF0.011855306062353421
aF0.011511270382299118
aF0.011112596207411556
aF0.0098946920693235886
aF0.010822424000701407
aF0.011134445571620515
aF0.011861049543751204
aF0.012267597728908612
aF0.012524567806966039
aF0.012332320865775943
aF0.011125803821942667
aF0.011208864279331416
aF0.0095744136587279337
aF0.0091995695741100784
aF0.0090617322623470619
aF0.0092921820413148851
aF0.010490864606175746
aF0.0089036746919481623
aF0.0088162980410583427
aF0.008380584080775362
aF0.008976331136031487
aF0.0090806479881677307
aF0.0078221857792129985
aF0.0064623086274426369
aF0.0063824091134024059
aF0.0072479073393537357
aF0.0090801247186254232
aF0.0077879943278272041
aF0.0081086800148161258
aF0.0085092891426831983
aF0.010123929901935964
aF0.010403030224473569
aF0.011264249707626657
aF0.011084583081695285
aF0.011301263485589557
aF0.010984634437925151
aF0.012288217461708011
aF0.011342001527889362
aF0.012693605715375015
aF0.014039702568950168
aF0.01396714911429962
aF0.014720724874548469
aF0.014125929691322588
aF0.015336342648547406
aF0.014393498318280691
aF0.014782051440728649
aF0.015557318439996731
aF0.015930799735150523
aF0.01570677795320442
aF0.013935557365868555
aF0.014112076052167671
aF0.014503004173353385
aF0.01367261910219637
aF0.015169523694281064
aF0.014473586646281018
aF0.014429121218752401
aF0.012762781324689823
aF0.01278936924310398
aF0.012961440658442123
aF0.013246920084028309
aF0.01430989898689012
aF0.012689384188928317
aF0.012564682711182659
aF0.012175341043380684
aF0.012880590832817602
aF0.014112581636655868
aF0.014164223034965485
aF0.013691575399611768
aF0.014707747165720835
aF0.015832117133195479
aF0.015491980487424619
aF0.016166640334731155
aF0.015557758485754976
aF0.01581028025255413
aF0.01581028025255413
aF0.016106573568582257
aF0.015516786376562485
aF0.014400999902116846
aF0.013256482496817375
aF0.013050786592122379
aF0.013734436688702533
aF0.014774895235596362
aF0.014531303380827379
aF0.013838651591703296
aF0.012932282165397659
aF0.011083502212799742
aF0.010713036739521002
aF0.010843426562907503
aF0.010951257539325892
aF0.011340016640639411
aF0.011868776872101637
aF0.011663447152056526
aF0.013018138941930992
aF0.012395439864205422
aF0.011807241206163992
aF0.01324585690018688
aF0.01324585690018688
aF0.01324585690018688
aF0.017664683012062934
aF0.017568800890441678
aF0.017614698807353512
aF0.017263633838437622
aF0.016437319450618684
aF0.014937735052687098
aF0.014644614643426448
aF0.013477156602049465
aF0.013862975823190888
aF0.014663479394679374
aF0.014187141824799679
aF0.014067029098447901
aF0.013831496426868312
aF0.013085143450779005
aF0.012724511907884845
aF0.011018026940983923
aF0.010007974203598231
aF0.0098699621218886809
aF0.0096919703746116154
aF0.0098550900316762696
aF0.0096583282002006502
aF0.011120948754439777
aF0.011232330265545837
aF0.012350840238325002
aF0.011869488435455391
aF0.011814953970352215
aF0.011803369219610369
aF0.0095819495723750165
aF0.0093404768032077905
aF0.0094560226244090016
aF0.0085148718981480076
aF0.00795557477971774
aF0.0080913621856495057
aF0.0073801093606382512
aF0.0074830030860669845
aF0.0093484475611266132
aF0.009870007894969916
aF0.0098550016064057003
aF0.0092756121859075471
aF0.0093478618737462566
aF0.01010832336182918
aF0.011445243752913867
aF0.011442574350039984
aF0.010595506031069842
aF0.011329883104632201
aF0.012294159639890251
aF0.012681621490469657
aF0.011758093400484422
aF0.011865227377711266
aF0.012407173377461285
aF0.012444360885073419
aF0.011296767320655444
aF0.0095158043490974741
aF0.0092330411397637101
aF0.0092170996239260648
aF0.009806465495539006
aF0.010227973155882095
aF0.0099184670238363498
aF0.0092818633323881287
aF0.0096249284150607718
aF0.0095698477938746685
aF0.0094574447108192114
aF0.0092060724725374545
aF0.008488612193532254
aF0.0069731674229524853
aF0.0068206239483965389
aF0.0068121351224219107
aF0.0059026541668895424
aa(lp10
cnumpy.core.multiarray
scalar
p11
(cnumpy
dtype
p12
(S'f8'
I0
I1
tRp13
(I3
S'<'
NNNI-1
I-1
I0
tbS'#\xd8\n\x86(\xf2\xf1?'
tRp14
ag11
(g13
S'oe\xa6\xebk\xf4\xf1?'
tRp15
ag11
(g13
S'\xa2K;1\x8d\xee\xf1?'
tRp16
ag11
(g13
S'\xff\xe5J\x1e\xc5\xe7\xf1?'
tRp17
ag11
(g13
S'\xf5\xd5\xc2($\xd9\xf1?'
tRp18
ag11
(g13
S'\xc2"\xcd\xf9\xe4\xdf\xf1?'
tRp19
ag11
(g13
S'\x7fY3# \xb1\xf1?'
tRp20
ag11
(g13
S'\xa7v\x8a8\x89\x94\xf1?'
tRp21
ag11
(g13
S'\x9d\xd5\rH\xecl\xf1?'
tRp22
ag11
(g13
S'\x0ck\x0e\xf5\t9\xf1?'
tRp23
ag11
(g13
S':\x1b\x88\xb7\xd2\xf9\xf0?'
tRp24
ag11
(g13
S'P~\x0e)\x1e\xb4\xf0?'
tRp25
ag11
(g13
S'\xf4:\x7f\x96\x87J\xf0?'
tRp26
ag11
(g13
S'\xdbjW\xff\x87\x00\xf0?'
tRp27
ag11
(g13
S'Ij\x08`\x0e8\xef?'
tRp28
ag11
(g13
S'U\xa8\xcd\\\x1cI\xee?'
tRp29
ag11
(g13
S'\x18\xd7\xbb\x8e\x9ay\xed?'
tRp30
ag11
(g13
S'C\xf6\x8b$j\x86\xec?'
tRp31
ag11
(g13
S'\xc5\x1am\xfdG\x87\xeb?'
tRp32
ag11
(g13
S'\xa1\xf6\xfa~!}\xea?'
tRp33
ag11
(g13
S'\xea\xf8O2\xd2h\xe9?'
tRp34
ag11
(g13
S'\xa5\xe6$\xbf$K\xe8?'
tRp35
ag11
(g13
S'\ns\x13\xc0\xd4$\xe7?'
tRp36
ag11
(g13
S'\t\xc2\x1ej\xeb\xe6\xe5?'
tRp37
ag11
(g13
S'\t.>!%\xd1\xe4?'
tRp38
ag11
(g13
S'\x1b\x11\x85\xf2`\x8b\xe3?'
tRp39
ag11
(g13
S'>\xeeC3\x8bO\xe2?'
tRp40
ag11
(g13
S'\x1bmX\x96\x17\xb8\xe0?'
tRp41
ag11
(g13
S'}\x93\x97\x81\xac\xad\xdf?'
tRp42
ag11
(g13
S'\x00&=H4\xf1\xdc?'
tRp43
ag11
(g13
S'W\x80U\xa0\xd5\xdc\xda?'
tRp44
ag11
(g13
S'\x81\x14\xc1\xf4\x8d\xa0\xd7?'
tRp45
ag11
(g13
S'\x16G:\x07\x8f\xeb\xd4?'
tRp46
ag11
(g13
S'\xfd\xe2\xcf\x0c\xc8x\xd2?'
tRp47
ag11
(g13
S'\xc0Z\x8f\xe8\x1e\xd7\xce?'
tRp48
ag11
(g13
S'>=\xb2l|C\xc9?'
tRp49
ag11
(g13
S'\xeeH\xe5\xfa0\xa4\xc3?'
tRp50
ag11
(g13
S'\xbdc\xf9f^l\xbc?'
tRp51
ag11
(g13
S'\xa6\xc8\xf1)\x04\x1c\xb2?'
tRp52
ag11
(g13
S'\xfc\xd9u\xfc\xc5\xc1\xa0?'
tRp53
ag11
(g13
S'\x00\xe3\xee\xec\x08tv\xbf'
tRp54
ag11
(g13
S'\x12Z.\xdf\xc7\x7f\xa3\xbf'
tRp55
ag11
(g13
S'i\tA8k\n\xb2\xbf'
tRp56
ag11
(g13
S'\x0c\xb62\xd4\xc5\xd0\xb9\xbf'
tRp57
ag11
(g13
S'\n1\xee~\x12\x93\xc0\xbf'
tRp58
ag11
(g13
S'I\xe2x\x9dW\x04\xc4\xbf'
tRp59
ag11
(g13
S'\xaeeM\x7f\xfe\xa0\xc7\xbf'
tRp60
ag11
(g13
S'/\xe4\xec\x93hK\xca\xbf'
tRp61
ag11
(g13
S'\xc3\x9e\xc3V\xc9\x1b\xcd\xbf'
tRp62
ag11
(g13
S'\x10}\x910\x8f\xad\xcf\xbf'
tRp63
ag11
(g13
S'\x94I/>5\xf4\xd0\xbf'
tRp64
ag11
(g13
S'\x17\xcf\xce\x0c\xb8\x08\xd2\xbf'
tRp65
ag11
(g13
S"2\xbez'\x0f\x15\xd3\xbf"
tRp66
ag11
(g13
S'P\xefX\xcb\x81\x0b\xd4\xbf'
tRp67
ag11
(g13
S'\xf5sy\x97d\xe4\xd4\xbf'
tRp68
ag11
(g13
S'rPg\xe1\x85|\xd5\xbf'
tRp69
ag11
(g13
S'\xcf\xcc\xa1Ct4\xd6\xbf'
tRp70
ag11
(g13
S'~\xbe\xd4\x83\xcf\xa8\xd6\xbf'
tRp71
ag11
(g13
S"\x16\x9a\r\x88\xfe'\xd7\xbf"
tRp72
ag11
(g13
S'\x13\xd6\xa1\xf4\xbd\x8e\xd7\xbf'
tRp73
ag11
(g13
S'\x086e\xb6\x9e\xce\xd7\xbf'
tRp74
ag11
(g13
S'\xf8/ \x9b\x93\n\xd8\xbf'
tRp75
ag11
(g13
S'\xf0\xe9KT\xce6\xd8\xbf'
tRp76
ag11
(g13
S'\x90\xbatt\xedR\xd8\xbf'
tRp77
ag11
(g13
S'.\xbc#\x96\x7f`\xd8\xbf'
tRp78
ag11
(g13
S'(z\x13\x1dM]\xd8\xbf'
tRp79
ag11
(g13
S'\xe46:_NO\xd8\xbf'
tRp80
ag11
(g13
S'\\D\xaa \x8e/\xd8\xbf'
tRp81
ag11
(g13
S'J_\xa6P\xa0\x00\xd8\xbf'
tRp82
ag11
(g13
S'\x1a`\x95\x7fj\xc8\xd7\xbf'
tRp83
ag11
(g13
S'l`\xa4\x0e\xb6z\xd7\xbf'
tRp84
ag11
(g13
S'\xd4\x97<\xe1f"\xd7\xbf'
tRp85
ag11
(g13
S'\xfe\xa9t\xe2\xb5\xbf\xd6\xbf'
tRp86
ag11
(g13
S'\x92~\xc1\x01\xedT\xd6\xbf'
tRp87
ag11
(g13
S'x\tw\xc9\xee\xe4\xd5\xbf'
tRp88
ag11
(g13
S'\x17\x88\x9b\x80\xfak\xd5\xbf'
tRp89
ag11
(g13
S'\xb6\xb9\xacR3\xe8\xd4\xbf'
tRp90
ag11
(g13
S'#\x85\xedv\xabd\xd4\xbf'
tRp91
ag11
(g13
S'\x9e9\xf8\xd2I\xd3\xd3\xbf'
tRp92
ag11
(g13
S'\x08\xbe\x1f\x97\xcb?\xd3\xbf'
tRp93
ag11
(g13
S'\xa3\xb2\xcf\xeaR\xa3\xd2\xbf'
tRp94
ag11
(g13
S'\x98\x19\x8d&\x06\x04\xd2\xbf'
tRp95
ag11
(g13
S'h\x88\xc9\xe0\x16_\xd1\xbf'
tRp96
ag11
(g13
S'\x10sl\xff\x13\xb1\xd0\xbf'
tRp97
ag11
(g13
S'\x98#\xbc-\xc5\x04\xd0\xbf'
tRp98
ag11
(g13
S'+\x9f\xb8{\xa0\xc2\xce\xbf'
tRp99
ag11
(g13
S'U\xae\x9f\x8b\xc2Q\xcd\xbf'
tRp100
ag11
(g13
S'\xc8\xa1\xfd\xae\x1d\xb7\xcb\xbf'
tRp101
ag11
(g13
S'bR\xa3\x0f&\x90\xca\xbf'
tRp102
ag11
(g13
S'y\xd1\xd7p\x82\xda\xc8\xbf'
tRp103
ag11
(g13
S'\x90\xd6o!\x1e\xb3\xc7\xbf'
tRp104
ag11
(g13
S'x\xcc\xf7\xf0PN\xc6\xbf'
tRp105
ag11
(g13
S'\xa7v\xc4\x95\x9c\xdc\xc4\xbf'
tRp106
ag11
(g13
S'\xc2z\xc9>\xf6e\xc3\xbf'
tRp107
ag11
(g13
S'\xfc\xf3[,\xdd\x03\xc2\xbf'
tRp108
ag11
(g13
S'w\x82\xa5_\x08\xb8\xc0\xbf'
tRp109
ag11
(g13
S'{\xdd\xd1\xb7N\xbe\xbe\xbf'
tRp110
ag11
(g13
S'\x95\xa5\x04\xa6C\xf2\xbb\xbf'
tRp111
ag11
(g13
S'J\xdf\xd5G\xfd-\xb9\xbf'
tRp112
ag11
(g13
S'\\B\xbe\xa6,\xce\xb6\xbf'
tRp113
ag11
(g13
S'|yzs\xb8,\xb4\xbf'
tRp114
ag11
(g13
S'\xa0\x82\x13\xed\xc0\xaa\xb1\xbf'
tRp115
ag11
(g13
S'(\x06\xf7?\x05m\xad\xbf'
tRp116
ag11
(g13
S'\xee)\xdefd~\xa9\xbf'
tRp117
ag11
(g13
S'\x86\xcf7\xfdtI\xa4\xbf'
tRp118
ag11
(g13
S'z"\xcdaK\x1e\xa0\xbf'
tRp119
ag11
(g13
S'L\x1dN\xac\xda\x1c\x96\xbf'
tRp120
ag11
(g13
S'\x98M\xaa\x94\xffV\x88\xbf'
tRp121
ag11
(g13
S'\xc0\x8a\xdb]\xd8We\xbf'
tRp122
ag11
(g13
S'`\xbfs\xe3\xeb\x1fz?'
tRp123
ag11
(g13
S'\x98\xa6,\xde\x7f\xbe\x8e?'
tRp124
ag11
(g13
S'\x18u\xe5\xc0\x025\x98?'
tRp125
ag11
(g13
S'\xbe\x1c\x96\xf7\xd4\x85\xa0?'
tRp126
ag11
(g13
S'\xa2\x94O,g\xad\xa4?'
tRp127
ag11
(g13
S'\xe0K<\x10E|\xa8?'
tRp128
ag11
(g13
S'\xfa\x91\xe0\x17\x0c6\xac?'
tRp129
ag11
(g13
S'l#S\xc7\xce\xe1\xaf?'
tRp130
ag11
(g13
S'\x1e\xaf\xefA\xb1\xc6\xb1?'
tRp131
ag11
(g13
S'\x0e\x81.0^i\xb3?'
tRp132
ag11
(g13
S't\xb6\x90dw%\xb5?'
tRp133
ag11
(g13
S'\x06\x11f\xab\xef\x96\xb6?'
tRp134
ag11
(g13
S'\xde\xaf\xf1A4\xec\xb7?'
tRp135
ag11
(g13
S'fV\xc3 \xda.\xb9?'
tRp136
ag11
(g13
S'<,\xfb\xb2uc\xba?'
tRp137
ag11
(g13
S'\xa4w\x1dM\xdf\x8d\xbb?'
tRp138
ag11
(g13
S'\x0cs\x92"\x11\xad\xbc?'
tRp139
ag11
(g13
S'T\xa0_[\xc3\xc0\xbd?'
tRp140
ag11
(g13
S'\x0e\xf0\xde\xe1\xd3\xaf\xbe?'
tRp141
ag11
(g13
S'\x06\xd0\xa4\xaf\xfb\xa2\xbf?'
tRp142
ag11
(g13
S'\x91,\xfa6+E\xc0?'
tRp143
ag11
(g13
S'v\x912\xf0T\xae\xc0?'
tRp144
ag11
(g13
S'&P\x7f({\x0b\xc1?'
tRp145
ag11
(g13
S'\xda\xd69\x9a\xe9i\xc1?'
tRp146
ag11
(g13
S'>\\\xd3\x1e\x19\xba\xc1?'
tRp147
ag11
(g13
S'8\xa0\xa3|\x95\x17\xc2?'
tRp148
ag11
(g13
S'7\x9c\xd6(\x0ck\xc2?'
tRp149
ag11
(g13
S'\x8e\x81\xa3q=\xbf\xc2?'
tRp150
ag11
(g13
S'\x8a\xe8\x91\x95\xe4\x02\xc3?'
tRp151
ag11
(g13
S'\xc8e\xc7\x8cIV\xc3?'
tRp152
ag11
(g13
S'\x19}\x16?V\x97\xc3?'
tRp153
ag11
(g13
S'\xd3o\x1a8&\xc7\xc3?'
tRp154
ag11
(g13
S'\x8dy}\x04=\xe4\xc3?'
tRp155
ag11
(g13
S'\x86v\xf9\xe4b\x13\xc4?'
tRp156
ag11
(g13
S'h\xa4\xa3\x83\x19/\xc4?'
tRp157
ag11
(g13
S'\xe4v\xaf\x94=4\xc4?'
tRp158
ag11
(g13
S'\xca\x00*T\xd9H\xc4?'
tRp159
ag11
(g13
S'\xd4*&V|^\xc4?'
tRp160
ag11
(g13
S'}\x1b\x0c\xaea\xcb\xc4?'
tRp161
ag11
(g13
S'\xef\xef\xd3\xa0\xe6Y\xc5?'
tRp162
ag11
(g13
S'w\xd3\x04)\xf6\xec\xc4?'
tRp163
ag11
(g13
S'\xd1\x8b\xfc\x05\xb3e\xc4?'
tRp164
ag11
(g13
S'\x1c\xd1\x8f\xdeq\xf0\xc4?'
tRp165
ag11
(g13
S'\x00\xf0\x16e\xe3y\xc5?'
tRp166
ag11
(g13
S'~yLz`\xc4\xc4?'
tRp167
ag11
(g13
S'\xda2\xb3\x81\xec\xf1\xc3?'
tRp168
ag11
(g13
S'\xb2\xc5{\xe9\xd7\xcb\xc3?'
tRp169
ag11
(g13
S'~-"\xc0c\xa2\xc3?'
tRp170
ag11
(g13
S'\xd4\xe5e$\x12\x8c\xc3?'
tRp171
ag11
(g13
S'\x0c\x08\x12p\x11Y\xc3?'
tRp172
ag11
(g13
S"$\xbd\xa0\x92b'\xc3?"
tRp173
ag11
(g13
S'\x8cln\x13\x99\x10\xc3?'
tRp174
ag11
(g13
S'\x15\xa6\x19\xaf\x05\xeb\xc2?'
tRp175
ag11
(g13
S'\xf6u\xc0r5\xc3\xc2?'
tRp176
ag11
(g13
S'J\xdb\xeb\xf8\xeb\x94\xc2?'
tRp177
ag11
(g13
S'\xbad\xc4\x08\xcab\xc2?'
tRp178
ag11
(g13
S'-+V\xec\xf8?\xc2?'
tRp179
ag11
(g13
S'\xaa"l\x05(\xfb\xc1?'
tRp180
ag11
(g13
S'\xfb\xcc\x8d\x9e\x0e\xdd\xc1?'
tRp181
ag11
(g13
S'f4p;v\xad\xc1?'
tRp182
ag11
(g13
S'3\xee?\xc6\xdfx\xc1?'
tRp183
ag11
(g13
S'\x12u<\xc0\x0bA\xc1?'
tRp184
ag11
(g13
S'vj]\t`\x05\xc1?'
tRp185
ag11
(g13
S'00b\x90\xd7\xc5\xc0?'
tRp186
ag11
(g13
S'\x8c\x9a\xeb[u\x8c\xc0?'
tRp187
ag11
(g13
S'\x81WS4\nI\xc0?'
tRp188
ag11
(g13
S'e\xb9\xc9\xdc(E\xc0?'
tRp189
ag11
(g13
S'\x1a\x9c\x8c&\xed\xa7\xbf?'
tRp190
ag11
(g13
S'\xf6\r\x99\xe2\x88/\xbf?'
tRp191
ag11
(g13
S'\x02\xc7\\\xcc\xa5\xb2\xbe?'
tRp192
ag11
(g13
S'\xf1\xe8~\xb1\xa3O\xbe?'
tRp193
ag11
(g13
S'A\x19\xebu\xf9\xc1\xbd?'
tRp194
ag11
(g13
S'4\x99|`\xc7V\xbd?'
tRp195
ag11
(g13
S'\xc5\x84o\xf0\x1d\xe1\xbc?'
tRp196
ag11
(g13
S'\xd7\xa8\x1a\xdaw{\xbc?'
tRp197
ag11
(g13
S'\xcat\x99\xe6\xba\x08\xbc?'
tRp198
ag11
(g13
S'\x94\x87\xd1~\xe2\x8f\xbb?'
tRp199
ag11
(g13
S'(C\x8c\t\x0e\x00\xbb?'
tRp200
ag11
(g13
S'\x93~%\xa3\x11\x89\xba?'
tRp201
ag11
(g13
S'\xd6\x16\xba\xd32\xdf\xb9?'
tRp202
ag11
(g13
S'[\x8c7,\xe1>\xb9?'
tRp203
ag11
(g13
S'}\xe900\xaf\x95\xb8?'
tRp204
ag11
(g13
S'\xeem[\t\x95\xb7\xb7?'
tRp205
ag11
(g13
S'\xb7 \xb6_\x89H\xb7?'
tRp206
ag11
(g13
S'\x85\x14\xf2>\x16d\xb6?'
tRp207
ag11
(g13
S'L\x81n\xcd\xdd\xe2\xb5?'
tRp208
ag11
(g13
S'\xee\xa8\xb3\xf0\x022\xb5?'
tRp209
ag11
(g13
S'&\xb3DiT\x95\xb4?'
tRp210
ag11
(g13
S'j\x84W\xeb\xd0\x95\xb4?'
tRp211
ag11
(g13
S'\xe6\x9e\x9d\x06`/\xb3?'
tRp212
ag11
(g13
S'\x85\x9c\xa5\x89\xeb\xdf\xb2?'
tRp213
ag11
(g13
S'\x13\xb8\xfc6z\xe6\xb2?'
tRp214
ag11
(g13
S'\xfbh\x12\xad0N\xb3?'
tRp215
ag11
(g13
S'JA\xdb\x84\xd3\x87\xb1?'
tRp216
ag11
(g13
S'\x9a\x7fm\xcd:\xe7\xb1?'
tRp217
ag11
(g13
S'\xa8\xe3G\xd0}@\xb0?'
tRp218
ag11
(g13
S'\xf7\xb26~\x86\x97\xb0?'
tRp219
ag11
(g13
S'4e\x80\x9a\xef\x94\xac?'
tRp220
ag11
(g13
S' f\x08\xec\xc0G\xab?'
tRp221
ag11
(g13
S"\x0c=\xa9&'\xf1\xa9?"
tRp222
ag11
(g13
S'\xc9\x1c\x15-\x87\xae\xa8?'
tRp223
ag11
(g13
S'\xe8\xf0\xd3\xd1\x9fc\xa7?'
tRp224
ag11
(g13
S'vP\xbf\xffs\x1d\xa6?'
tRp225
ag11
(g13
S'\xab\x16\xf7\x08Z\x0f\xa5?'
tRp226
ag11
(g13
S'\x9d0$xI\x89\xa3?'
tRp227
ag11
(g13
S'\x10I\xb7\xb8\xb6]\xa2?'
tRp228
ag11
(g13
S'\xe8\x1e\xb4\x87\x98\x08\xa0?'
tRp229
ag11
(g13
S'^l#\xaaz"\x9e?'
tRp230
ag11
(g13
S'\xc0\x9dI\x1d\xe7\xd2\x9c?'
tRp231
ag11
(g13
S'H\xfe\x80\xc0\x885\x9a?'
tRp232
ag11
(g13
S'\xd4\xea8\x82\xa4"\x98?'
tRp233
ag11
(g13
S'\xc2\xd8\xba\xfb\x96\xbd\x95?'
tRp234
ag11
(g13
S'\xaa\x0b}#y\xbb\x93?'
tRp235
ag11
(g13
S'Z\xd6\x12\xad\xa5j\x91?'
tRp236
ag11
(g13
S'\xa8\xa9S>\x879\x8e?'
tRp237
ag11
(g13
S'\x88+\xd6\x95\xea\xde\x89?'
tRp238
ag11
(g13
S'\xd45&\xdd5.\x85?'
tRp239
ag11
(g13
S'\xc8\x91\x0e4\xba\x93\x80?'
tRp240
ag11
(g13
S'\xf0T_\xda~\xa8w?'
tRp241
ag11
(g13
S'\x10\xa3o\xad]\x9ck?'
tRp242
ag11
(g13
S'\xc0\xbd\x8a\x0f\x9eST?'
tRp243
ag11
(g13
S'\xc0\xedp\xb6p\x8aI\xbf'
tRp244
ag11
(g13
S'p\xfe\x80+\xcc\x06j\xbf'
tRp245
ag11
(g13
S'\x88\xb5\xbeGD\xe8u\xbf'
tRp246
ag11
(g13
S'd\xbd|\xc0\xa5m~\xbf'
tRp247
ag11
(g13
S'\xbc;\xe0z\xa2\xcc\x83\xbf'
tRp248
ag11
(g13
S'\xdeM\xea\xef\x9c,\x88\xbf'
tRp249
ag11
(g13
S'N\xd6\xb1\x0c\xb6\x9f\x89\xbf'
tRp250
ag11
(g13
S'\xb01H\x9c\x91R\x8d\xbf'
tRp251
ag11
(g13
S'Jc\xed@%\x7f\x8f\xbf'
tRp252
ag11
(g13
S'\xf6\xc7\x8d\x0f\x93\xac\x90\xbf'
tRp253
ag11
(g13
S'~\xa5\x12\x8aS\xb1\x93\xbf'
tRp254
ag11
(g13
S'\n7$\x18\x0f1\x96\xbf'
tRp255
ag11
(g13
S'\xd9)\xe8/-Q\x97\xbf'
tRp256
ag11
(g13
S'\xdfZ\xd8\xc9>\x82\x98\xbf'
tRp257
ag11
(g13
S'\x8e\xd9\xba\x07\xed\x96\x9a\xbf'
tRp258
ag11
(g13
S"\xceC\xb9m'\xba\x9c\xbf"
tRp259
ag11
(g13
S"\xef\xfdU'|_\x9e\xbf"
tRp260
ag11
(g13
S'\xb6R\xcf\x95\x96\xd8\x9f\xbf'
tRp261
ag11
(g13
S'\xf4\xb4\xa2\xc7\xaf\xb7\xa0\xbf'
tRp262
ag11
(g13
S'\xea\xe4\x1f0\xb2|\xa1\xbf'
tRp263
ag11
(g13
S'1\x12r\n\xfd/\xa2\xbf'
tRp264
ag11
(g13
S'\xda\xb0%\x02J\xb9\xa2\xbf'
tRp265
ag11
(g13
S'\xce\xedC\xa2\xd7A\xa3\xbf'
tRp266
ag11
(g13
S'\xfe\xbf\\\xef\t\xc6\xa3\xbf'
tRp267
ag11
(g13
S"\xaf\xfe\xd3\x94\xcc'\xa4\xbf"
tRp268
ag11
(g13
S'V\x1f[Q;\xa7\xa4\xbf'
tRp269
ag11
(g13
S'j\x9e\x1e\xcd2\x1e\xa5\xbf'
tRp270
ag11
(g13
S'\xc2\xd7Oc\xbc\xc7\xa5\xbf'
tRp271
ag11
(g13
S'\xb8\xb5\x01\xf7Hz\xa6\xbf'
tRp272
ag11
(g13
S'\xdd\xd0\x8bU][\xa7\xbf'
tRp273
ag11
(g13
S'\xf6\x86\xc0;\xdbI\xa8\xbf'
tRp274
ag11
(g13
S'n6\x18\x94\x1a.\xa9\xbf'
tRp275
ag11
(g13
S'\x98P\x055V\x1d\xaa\xbf'
tRp276
ag11
(g13
S"\xc4F\x9c'd\xf6\xaa\xbf"
tRp277
ag11
(g13
S'\xde\xc1\xe46\x0b\xcd\xab\xbf'
tRp278
ag11
(g13
S'R\x83\xc9\xd5\x1b\x8a\xac\xbf'
tRp279
ag11
(g13
S'\x8e\x84\x84 \xa2S\xad\xbf'
tRp280
ag11
(g13
S'\xb8\xea\x17!j\x1b\xae\xbf'
tRp281
ag11
(g13
S'j\xe3\xfaM\x9d|\xaf\xbf'
tRp282
ag11
(g13
S'\x90 \r+\x9fr\xb0\xbf'
tRp283
ag11
(g13
S'Z:\xef\xc6Q\xa4\xb0\xbf'
tRp284
ag11
(g13
S'zYA:9\xaa\xb0\xbf'
tRp285
ag11
(g13
S',a\x8c2\x82i\xb1\xbf'
tRp286
ag11
(g13
S'\xfe\x8e\xe9\xd3\xb7x\xb1\xbf'
tRp287
ag11
(g13
S'6Q\xd5\xae*?\xb2\xbf'
tRp288
ag11
(g13
S'\x9aEV\xee-^\xb2\xbf'
tRp289
ag11
(g13
S'&NP\x95\xaa+\xb3\xbf'
tRp290
ag11
(g13
S'\xa2\\N\x00\xb53\xb3\xbf'
tRp291
ag11
(g13
S'!\x17\x93Rs\xa1\xb3\xbf'
tRp292
ag11
(g13
S'\xaeLW\xe7\xdb\xdf\xb3\xbf'
tRp293
ag11
(g13
S'\x0c\x8a]\xeb?H\xb4\xbf'
tRp294
ag11
(g13
S'[=\x83x:`\xb4\xbf'
tRp295
ag11
(g13
S'\x84\xb9\xa10\x94\xf5\xb4\xbf'
tRp296
ag11
(g13
S'J.\xd8y\xeaK\xb5\xbf'
tRp297
ag11
(g13
S'\xd0\x84\x98\x8a\x89\xab\xb5\xbf'
tRp298
ag11
(g13
S'\x9eq\xd9\xd4\x0e\xc7\xb5\xbf'
tRp299
ag11
(g13
S'V\x0e/\xe7r\xdb\xb5\xbf'
tRp300
ag11
(g13
S'\xcd{\x19\x19rb\xb6\xbf'
tRp301
ag11
(g13
S'8n\xa9R?\x80\xb6\xbf'
tRp302
ag11
(g13
S':;tT\x8a\xfc\xb6\xbf'
tRp303
ag11
(g13
S'\x16\xfcy\x13\xa5\xc8\xb7\xbf'
tRp304
ag11
(g13
S'\xf1\xd2g\x17}\xc6\xb8\xbf'
tRp305
ag11
(g13
S'c\x98o:\xb3\x81\xb8\xbf'
tRp306
ag11
(g13
S'\x1a2S\xb9\xd5\x15\xb8\xbf'
tRp307
ag11
(g13
S'\xf43e\x0cR\x1c\xb9\xbf'
tRp308
ag11
(g13
S"''\xee^\xe3w\xb8\xbf"
tRp309
ag11
(g13
S'\x19\xa5\xf0\xb4\xed\x83\xb9\xbf'
tRp310
ag11
(g13
S'\x15\x14\xe2.\x8e\x95\xb8\xbf'
tRp311
ag11
(g13
S'~\x8fD\x9e\r\xe3\xb8\xbf'
tRp312
ag11
(g13
S'x%0\xbdd\x1a\xb9\xbf'
tRp313
ag11
(g13
S'\xb4\\\x13\x95\xa6K\xb9\xbf'
tRp314
ag11
(g13
S'\n\x83\xd8\x0e\r{\xb9\xbf'
tRp315
ag11
(g13
S'~\xdfy:\x85\x8c\xb9\xbf'
tRp316
ag11
(g13
S'\xc1\x10\x9cH\x06\xcb\xb9\xbf'
tRp317
ag11
(g13
S'L\x0f\xd9\xa6\xfa\xe5\xb9\xbf'
tRp318
ag11
(g13
S'W\x1d\xf8]j\xed\xb9\xbf'
tRp319
ag11
(g13
S'\t\x8f-\xef\x16\xfd\xb9\xbf'
tRp320
ag11
(g13
S']\xcd\xf6\xd1B\xfc\xb9\xbf'
tRp321
ag11
(g13
S'm[\xe2\x12\x13\xfe\xb9\xbf'
tRp322
ag11
(g13
S'N+\x0f3e\x14\xba\xbf'
tRp323
ag11
(g13
S'%RA\x12\xae\x16\xba\xbf'
tRp324
ag11
(g13
S'\x0452\x17\xb0&\xba\xbf'
tRp325
ag11
(g13
S'f)\x94\x06\x92*\xba\xbf'
tRp326
ag11
(g13
S'\x9a6\xa7\x8dY\x14\xbb\xbf'
tRp327
ag11
(g13
S's!d\xfbp\xe5\xb9\xbf'
tRp328
ag11
(g13
S'\xabt{S[\x1d\xbb\xbf'
tRp329
ag11
(g13
S'\x8c\x07\xab\xcd\x1bW\xbc\xbf'
tRp330
ag11
(g13
S'\xd8Ze\xe9\x8d/\xbb\xbf'
tRp331
ag11
(g13
S'b\xfbR\x88\xd4l\xbc\xbf'
tRp332
ag11
(g13
S'\xd50.\xa4\xa7b\xbb\xbf'
tRp333
ag11
(g13
S'ne\x8d\x1aA\xa3\xbc\xbf'
tRp334
ag11
(g13
S'_\xc0H\xed\x82g\xba\xbf'
tRp335
ag11
(g13
S'\xc6\x1d\x1d\x8ag\xea\xba\xbf'
tRp336
ag11
(g13
S')\xee\xbe\x1f\xf3C\xbb\xbf'
tRp337
ag11
(g13
S'\x9f\xd2c\xa2\xb5\x1f\xbb\xbf'
tRp338
ag11
(g13
S'$\xe4\xc2G\xe8Z\xbb\xbf'
tRp339
ag11
(g13
S'\xfe\xa2OsT\xa2\xbb\xbf'
tRp340
ag11
(g13
S'\xadN\t"\x85\xb9\xbb\xbf'
tRp341
ag11
(g13
S'vH\x91X\xf2\x03\xbc\xbf'
tRp342
ag11
(g13
S'\xfc\xf8\xef"\xc6\xec\xbb\xbf'
tRp343
ag11
(g13
S'B\x16\xe6\xadC[\xbc\xbf'
tRp344
ag11
(g13
S'N]%I\x07\xa0\xbc\xbf'
tRp345
ag11
(g13
S'\xd1\x88,a@\x8b\xbc\xbf'
tRp346
ag11
(g13
S'\x95\x90\xd2\xd5<\x06\xbd\xbf'
tRp347
ag11
(g13
S'\x12\xd8\x10\x02\x81\x19\xbd\xbf'
tRp348
ag11
(g13
S'\x86\xd6\x9e\x15\xfc\xed\xbc\xbf'
tRp349
ag11
(g13
S'\x8f\x80\x88\\1a\xbd\xbf'
tRp350
ag11
(g13
S'\xff\xea\xb3\x1dR\xa2\xbd\xbf'
tRp351
ag11
(g13
S'\xddG%\x11\xd3\x10\xbe\xbf'
tRp352
ag11
(g13
S'\xf1\x17\xa3\xc9\x87\x01\xbe\xbf'
tRp353
ag11
(g13
S'$=\x98\x90*%\xbe\xbf'
tRp354
ag11
(g13
S'I$\xe0\x00\xa8D\xbe\xbf'
tRp355
ag11
(g13
S'p\xb0\xe0\xce\x8a\x83\xbe\xbf'
tRp356
ag11
(g13
S')\x01#M~\x92\xbe\xbf'
tRp357
ag11
(g13
S'\xcc}D\x82Z{\xbe\xbf'
tRp358
ag11
(g13
S'\x83\xd6;%\xf3g\xbf\xbf'
tRp359
ag11
(g13
S'g\xdf.\x0c_`\xc0\xbf'
tRp360
ag11
(g13
S'\x05\x04\xbf\x1d\xa1\x9e\xbf\xbf'
tRp361
ag11
(g13
S'\xfa\x84\xc8\xc2\xe3{\xc0\xbf'
tRp362
ag11
(g13
S'\xc7\xab\x83\xc3\xbf\xb4\xbf\xbf'
tRp363
ag11
(g13
S'N\x89s\xe8\x04\x87\xc0\xbf'
tRp364
ag11
(g13
S'\x98XE-E\x8e\xbf\xbf'
tRp365
ag11
(g13
S'\xb6+\xcd]e \xbe\xbf'
tRp366
ag11
(g13
S'\x9a\xa9 _\x0e\x8c\xbd\xbf'
tRp367
ag11
(g13
S'\xdf\x87b\xb2\x02u\xbe\xbf'
tRp368
ag11
(g13
S'*G\xd3\xad\xccM\xbf\xbf'
tRp369
ag11
(g13
S'\xaa@{\xb9l\xa2\xbe\xbf'
tRp370
ag11
(g13
S'\xdf=\x86\t|\xfa\xbf\xbf'
tRp371
ag11
(g13
S'\x9e\xc0\x89=\x88\x8d\xbe\xbf'
tRp372
ag11
(g13
S'\xadc\x15J\xc0\xe4\xbf\xbf'
tRp373
ag11
(g13
S'\xcf\x03\xe9l&\xfa\xbd\xbf'
tRp374
ag11
(g13
S'u*\x95S]\x0f\xbe\xbf'
tRp375
ag11
(g13
S'ez\xd1n\xa4\x00\xbe\xbf'
tRp376
ag11
(g13
S"\xdbS\xc2?\x84'\xbe\xbf"
tRp377
ag11
(g13
S'\x0f7\x80zX\x13\xbe\xbf'
tRp378
ag11
(g13
S'\xb0\xce8\xf8\xc4\r\xbe\xbf'
tRp379
ag11
(g13
S'\\H\t\x82{\x04\xbe\xbf'
tRp380
ag11
(g13
S'\x0c\xcd\xec\x92\xae\xe2\xbd\xbf'
tRp381
ag11
(g13
S'~\xf6\xb3\xd9\x17\x07\xbe\xbf'
tRp382
ag11
(g13
S'\xba]\x9e\xdf;\xe0\xbd\xbf'
tRp383
ag11
(g13
S'b\x95\x9fJ:\xca\xbd\xbf'
tRp384
ag11
(g13
S'\xae}\x1e\xf0\xd3\xdd\xbd\xbf'
tRp385
ag11
(g13
S'jY\x85x\x19\xda\xbd\xbf'
tRp386
ag11
(g13
S'\xb8\xe74\xa3\x1e\xb7\xbd\xbf'
tRp387
ag11
(g13
S'\xa4\xe6\xd0VR\xa4\xbd\xbf'
tRp388
ag11
(g13
S'\x92\x8b\xfa\x03>\xaf\xbd\xbf'
tRp389
ag11
(g13
S'\x80\xc8\xbc\xa2\xb8M\xbd\xbf'
tRp390
ag11
(g13
S"\xae\x0b\x8en'\n\xbd\xbf"
tRp391
ag11
(g13
S'\x8a\xe7\xd2w` \xbd\xbf'
tRp392
ag11
(g13
S'\x9e\x01{\x97\x8d\xb9\xbc\xbf'
tRp393
ag11
(g13
S'\xbe\x0e\x1e\xe1\xf3\xba\xbc\xbf'
tRp394
ag11
(g13
S't\xb7\xf7(\xd8\x86\xbc\xbf'
tRp395
ag11
(g13
S'\x80\x12\xff\xefIA\xbc\xbf'
tRp396
ag11
(g13
S'>\xee\t\x9c\xe6\x0c\xbc\xbf'
tRp397
ag11
(g13
S'&\x11\xe4\xf2)\xd4\xbb\xbf'
tRp398
ag11
(g13
S'\xdc>\x1b\xd3\xa8\x9d\xbb\xbf'
tRp399
ag11
(g13
S'B\x8bQ(ej\xbb\xbf'
tRp400
ag11
(g13
S'\xed\x0c\x02\x17\xbe5\xbb\xbf'
tRp401
ag11
(g13
S'n\xb3\xc0Q\xa0\xfd\xba\xbf'
tRp402
ag11
(g13
S'HD\x81\xddD\x92\xba\xbf'
tRp403
ag11
(g13
S'C\xd3q\rNu\xba\xbf'
tRp404
ag11
(g13
S'\x1e\x94\x17P\xa8)\xba\xbf'
tRp405
ag11
(g13
S'\x91\x07\x05?F\xc6\xb9\xbf'
tRp406
ag11
(g13
S'\x9e7\x15j\xe0Q\xb9\xbf'
tRp407
ag11
(g13
S"\x9f'\xff\x1an\x04\xb9\xbf"
tRp408
ag11
(g13
S'\x90\x19*\xf7-\x93\xb8\xbf'
tRp409
ag11
(g13
S'HM\x9d\xe3\xe6\xe0\xb7\xbf'
tRp410
ag11
(g13
S'$Q\\\xa8;\xf1\xb7\xbf'
tRp411
ag11
(g13
S'@C\x87T\x83\x91\xb7\xbf'
tRp412
ag11
(g13
S'\xb4&\xcdd\xcd@\xb7\xbf'
tRp413
ag11
(g13
S'\x0e\xac\xc7\xd35\xee\xb6\xbf'
tRp414
ag11
(g13
S'\xa4~\xeb+\x1e\x89\xb6\xbf'
tRp415
ag11
(g13
S'\xb8LCab2\xb6\xbf'
tRp416
ag11
(g13
S'\xda\x13l\xfb\t\xc6\xb5\xbf'
tRp417
ag11
(g13
S'\x0c\x93\x15\x04\xd6a\xb5\xbf'
tRp418
ag11
(g13
S'\x80\x02\xf9\x86\xf7\xea\xb4\xbf'
tRp419
ag11
(g13
S'\xf0\xa9C\xceLu\xb4\xbf'
tRp420
ag11
(g13
S'\x0f\xfc\xe7\x00?\xe8\xb3\xbf'
tRp421
ag11
(g13
S'\x87\x9b3 \xf3+\xb4\xbf'
tRp422
ag11
(g13
S'}\x1a\x15\xa8j+\xb5\xbf'
tRp423
ag11
(g13
S'6\x0f\xbd7\x94\x81\xb2\xbf'
tRp424
ag11
(g13
S'1&\xe2\r\xec\r\xb2\xbf'
tRp425
ag11
(g13
S'G\xd3M+\xa3\xad\xb1\xbf'
tRp426
ag11
(g13
S'\xa7\xca\xf7\x8a\xf0f\xb1\xbf'
tRp427
ag11
(g13
S'\xe8?eCx\xe3\xb0\xbf'
tRp428
ag11
(g13
S'Ih\xce\x9d\xd2\x96\xb0\xbf'
tRp429
ag11
(g13
S'zA\x16\xc8\x90\xde\xaf\xbf'
tRp430
ag11
(g13
S'\xa7s;7^\x07\xb0\xbf'
tRp431
ag11
(g13
S'*\xf4/\xb7\xbf\x86\xaf\xbf'
tRp432
ag11
(g13
S'f\x88\x05\xb4w/\xaf\xbf'
tRp433
ag11
(g13
S'\xaa\x86\x86\x1a\x8d\xda\xae\xbf'
tRp434
ag11
(g13
S'`\x9b8I\xa1\x91\xae\xbf'
tRp435
ag11
(g13
S'\x1e\xd3<s\xac/\xae\xbf'
tRp436
ag11
(g13
S'\x82\xbf=\x0b\xa0\xc5\xad\xbf'
tRp437
ag11
(g13
S'\n\xdc`\x8b\x8fW\xad\xbf'
tRp438
ag11
(g13
S'\x1ae\x1aw\xad\xe4\xac\xbf'
tRp439
ag11
(g13
S'..B\x88\x85f\xac\xbf'
tRp440
ag11
(g13
S'\xf2\xd5\x87\xd2\x86\xae\xab\xbf'
tRp441
ag11
(g13
S'\x16\x1e\xed\xef7v\xab\xbf'
tRp442
ag11
(g13
S':\x81\x98\x13\xcb\xd5\xaa\xbf'
tRp443
ag11
(g13
S"\x128\xa6\xe8'\x89\xaa\xbf"
tRp444
ag11
(g13
S',\x19\xc3!\xe0\xf5\xab\xbf'
tRp445
ag11
(g13
S'\xae\xf6h\x892[\xad\xbf'
tRp446
ag11
(g13
S'H\xa47\x0b\x94$\xab\xbf'
tRp447
ag11
(g13
S'\xe6\xa6#\xc8\xf3i\xa7\xbf'
tRp448
ag11
(g13
S'vZw\xb97\xdd\xa6\xbf'
tRp449
ag11
(g13
S'HL\x1a\x19\n-\xa6\xbf'
tRp450
ag11
(g13
S'\x80\x01\x8a\\sa\xa5\xbf'
tRp451
ag11
(g13
S'P\xa1i/\xa2\x8f\xa4\xbf'
tRp452
ag11
(g13
S'\x9a\xae\x9b<8\xae\xa3\xbf'
tRp453
ag11
(g13
S'p}\xd9\x1c(\x0b\xa3\xbf'
tRp454
ag11
(g13
S'h\xbf8\x1a\xa0z\xa2\xbf'
tRp455
ag11
(g13
S'\xf8\xc0\x82\xe9@\xc2\xa1\xbf'
tRp456
ag11
(g13
S'L\x8aQ\xe6\xbc&\xa1\xbf'
tRp457
ag11
(g13
S'\xf0\xd2\xba\xffy\x83\xa0\xbf'
tRp458
ag11
(g13
S'\xd0\x0f\xc1\x8a\x81\xc0\x9f\xbf'
tRp459
ag11
(g13
S'(\xa6WS{\xd9\x9c\xbf'
tRp460
ag11
(g13
S'\x90r\xde\x05\x00\xba\x9e\xbf'
tRp461
ag11
(g13
S'(\xa8C%\x08\xf8\x9b\xbf'
tRp462
ag11
(g13
S'X\xd0f6\xd1y\x99\xbf'
tRp463
ag11
(g13
S'$\xf7A\x1f\xbb\xe5\x97\xbf'
tRp464
ag11
(g13
S'\xf4\xc1\xa7\xa4\x81M\x97\xbf'
tRp465
ag11
(g13
S'\\\xd2\x03\xd4>\xd7\x95\xbf'
tRp466
ag11
(g13
S'x\x84i\xeb\x82\x9c\x94\xbf'
tRp467
ag11
(g13
S'\\[\xc4.\x13\x1f\x93\xbf'
tRp468
ag11
(g13
S'$,\xab{\xf4}\x91\xbf'
tRp469
ag11
(g13
S'(?\xa5\xde\xbf=\x90\xbf'
tRp470
ag11
(g13
S' \xf8"\x18dK\x8d\xbf'
tRp471
ag11
(g13
S' HF?\x00\xdf\x8a\xbf'
tRp472
ag11
(g13
S'h&s\xf4M\xbf\x87\xbf'
tRp473
ag11
(g13
S'\x10\xd9\xbb}\x9b.\x86\xbf'
tRp474
ag11
(g13
S'\x9c\x11Q\xa4\x9fe\x85\xbf'
tRp475
ag11
(g13
S'\x90\t\xfa}\xed\xf1z\xbf'
tRp476
ag11
(g13
S'`\xbf\x05Xu\xccz\xbf'
tRp477
ag11
(g13
S'8\x94\xcd\xcfGlp\xbf'
tRp478
ag11
(g13
S'@\x9d\xf2t\xde\xb5H\xbf'
tRp479
ag11
(g13
S'\x80\xf8\x12R\x9a\x022?'
tRp480
ag11
(g13
S'p\xe1v6o_a?'
tRp481
ag11
(g13
S'\xf8\xad\xd3F\xcd\xe3r?'
tRp482
ag11
(g13
S'\x18\xf8I\xf1\xc7b{?'
tRp483
ag11
(g13
S'0\x13)\xe1C;~?'
tRp484
ag11
(g13
S'\xe0\xea\x1e\x1d{\x12}?'
tRp485
ag11
(g13
S'|\x02\xfb\xbdj*\x87?'
tRp486
ag11
(g13
S'\xbc*\x80\x9cc\xdb\x86?'
tRp487
ag11
(g13
S'@\xf6\x01Y\xfc;\x8e?'
tRp488
ag11
(g13
S'\xa4\x9dW?_2\x8e?'
tRp489
ag11
(g13
S'2\x8e\xa6\xef\xcf\x04\x93?'
tRp490
ag11
(g13
S'\x8e>q\xec\xf2\xa4\x94?'
tRp491
ag11
(g13
S'B\x81\xad*m\r\x96?'
tRp492
ag11
(g13
S'>e\xd7\\\x08\xed\x97?'
tRp493
ag11
(g13
S'\xa2\xf1[\xf5\x9d\xa3\x99?'
tRp494
ag11
(g13
S'\xba\x00\x01+\xc7\xde\x9b?'
tRp495
ag11
(g13
S'\xe8oA\xeaq\xfc\x9d?'
tRp496
ag11
(g13
S'\xb8\xda\xfd\x9cT\x93\x9f?'
tRp497
ag11
(g13
S'\xdcz\xebj\xe9\x93\xa0?'
tRp498
ag11
(g13
S'2r\x0b\xe63Q\xa1?'
tRp499
ag11
(g13
S'+\xba\xb8\x1d\x9c\x0f\xa2?'
tRp500
ag11
(g13
S'\xd1\xc8#\xaa;\x06\xa3?'
tRp501
ag11
(g13
S'\x16\xdd\xe3\x9cc\xce\xa3?'
tRp502
ag11
(g13
S'\xcc\x12C\x1bb\x94\xa4?'
tRp503
ag11
(g13
S'^\xd2\x08\x0b\x1a\x1b\xa5?'
tRp504
ag11
(g13
S'\xa2\xad\x96\xdd\x9d\xae\xa5?'
tRp505
ag11
(g13
S'Xh\xc3\x94\x92}\xa6?'
tRp506
ag11
(g13
S'\x1a\xb2\x0f\x1b\x80\x1f\xa7?'
tRp507
ag11
(g13
S'a\xebP\xda3\xc1\xa7?'
tRp508
ag11
(g13
S'\xc0\xdc,\xe0\xfcT\xa8?'
tRp509
ag11
(g13
S'\xc0\x9cV\xf1n\xd9\xa8?'
tRp510
ag11
(g13
S'\xb3@\xc3M\xaaj\xa9?'
tRp511
ag11
(g13
S'\x8b\x83\x97\xfaH\xea\xa9?'
tRp512
ag11
(g13
S'\xf2c+J\xf9\x8d\xaa?'
tRp513
ag11
(g13
S'8C\x01\xa87\xff\xaa?'
tRp514
aasS'vel'
p515
(lp516
(lp517
F-3.085358813405037e-05
aF1.3629750348627568e-05
aF-2.6968473568558693e-05
aF-0.00014901791512966157
aF-0.00047017052769660951
aF-0.00055821561813354493
aF-0.00079534584283828737
aF-0.0011119239330291749
aF-0.0015125637054443359
aF-0.0019109647274017335
aF-0.0023056602478027342
aF-0.0026971561908721922
aF-0.0030890283584594728
aF-0.0034752879142761232
aF-0.0038682174682617186
aF-0.0042592487335205076
aF-0.0046508517265319823
aF-0.0050394568443298338
aF-0.0054271659851074221
aF-0.0058107161521911621
aF-0.0061892390251159666
aF-0.0065673646926879886
aF-0.0069348230361938479
aF-0.0072968726158142089
aF-0.0076514067649841311
aF-0.0079593091011047369
aF-0.0083010644912719731
aF-0.0086349544525146493
aF-0.0089591341018676763
aF-0.009270485877990722
aF-0.0095713529586791985
aF-0.0098614645004272469
aF-0.010144418716430664
aF-0.010420685768127441
aF-0.010689770698547364
aF-0.010948390960693359
aF-0.011196233749389649
aF-0.011330404281616212
aF-0.01247263240814209
aF-0.014710019111633301
aF-0.019587472915649416
aF-0.022468576431274413
aF-0.028044878005981447
aF-0.034159080505371094
aF-0.04148360824584961
aF-0.050010665893554684
aF-0.065998970031738283
aF-0.069912940979003912
aF-0.086553627014160153
aF-0.091341033935546878
aF-0.11069770050048829
aF-0.11570064544677734
aF-0.13673579406738282
aF-0.14431016540527344
aF-0.16358262634277343
aF-0.17078660583496094
aF-0.19053076171875
aF-0.19649633789062501
aF-0.21122949218750001
aF-0.22072776794433593
aF-0.22544386291503907
aF-0.23211570739746093
aF-0.23785437011718749
aF-0.24211056518554688
aF-0.24524453735351562
aF-0.24704887390136718
aF-0.24832334899902345
aF-0.24848104858398437
aF-0.24787088012695313
aF-0.2463849334716797
aF-0.24412377929687501
aF-0.24135098266601562
aF-0.23599502563476563
aF-0.2330802764892578
aF-0.23204316711425782
aF-0.2292115478515625
aF-0.2259217071533203
aF-0.22302270507812499
aF-0.22064405822753907
aF-0.21892980957031249
aF-0.21742678833007811
aF-0.21629187011718751
aF-0.21632905578613282
aF-0.21727742004394532
aF-0.21851568603515625
aF-0.21991007995605469
aF-0.22191184997558594
aF-0.22532424926757813
aF-0.22670518493652345
aF-0.22959252929687499
aF-0.23248834228515625
aF-0.23406072998046876
aF-0.23763671875
aF-0.23920458984375001
aF-0.24333923339843749
aF-0.24478639221191406
aF-0.24734352111816407
aF-0.24966381835937501
aF-0.25210809326171874
aF-0.25336914062499999
aF-0.25432310485839843
aF-0.25506562805175781
aF-0.2561526794433594
aF-0.2564273376464844
aF-0.25666140747070315
aF-0.25728979492187498
aF-0.25736758422851563
aF-0.25733743286132815
aF-0.256981689453125
aF-0.2563160400390625
aF-0.25673272705078126
aF-0.25584922790527342
aF-0.25521298217773436
aF-0.25495594787597659
aF-0.25483081054687501
aF-0.25518936157226563
aF-0.25562075805664064
aF-0.25597164916992188
aF-0.25680508422851561
aF-0.25835412597656249
aF-0.2591894836425781
aF-0.26047323608398437
aF-0.26243798828124998
aF-0.26303649902343751
aF-0.26431765747070313
aF-0.26485885620117189
aF-0.26582287597656251
aF-0.267507568359375
aF-0.26828024291992186
aF-0.2695171813964844
aF-0.27101037597656252
aF-0.27124844360351563
aF-0.2708000793457031
aF-0.2701169738769531
aF-0.27044262695312499
aF-0.2701166687011719
aF-0.26991793823242188
aF-0.26766906738281249
aF-0.26580218505859377
aF-0.26488580322265626
aF-0.26389358520507811
aF-0.26257989501953127
aF-0.26170404052734375
aF-0.25924288940429685
aF-0.25784417724609376
aF-0.25628448486328126
aF-0.25479869079589845
aF-0.25424018859863279
aF-0.25287155151367186
aF-0.251429443359375
aF-0.24938072204589845
aF-0.24875831604003906
aF-0.24733868408203125
aF-0.24680122375488281
aF-0.24617855834960939
aF-0.24560589599609375
aF-0.24493582153320312
aF-0.2447709503173828
aF-0.24443023681640624
aF-0.24386553955078125
aF-0.24374945068359374
aF-0.24345109558105468
aF-0.24285464477539062
aF-0.24229005432128906
aF-0.24130158996582032
aF-0.24010675048828126
aF-0.23781604003906251
aF-0.23617805480957033
aF-0.23540522766113281
aF-0.23321733093261718
aF-0.23251318359375001
aF-0.23085964965820313
aF-0.22844786071777343
aF-0.22796957397460937
aF-0.22565820312500001
aF-0.2250460662841797
aF-0.22381460571289064
aF-0.22332916259765626
aF-0.22287593078613283
aF-0.22148669433593751
aF-0.21998228454589844
aF-0.21841287231445314
aF-0.21720521545410157
aF-0.21581765747070311
aF-0.21384262084960937
aF-0.21170349121093751
aF-0.20934159851074219
aF-0.20696943664550782
aF-0.20357217407226563
aF-0.2007494659423828
aF-0.19816569519042967
aF-0.19388238525390625
aF-0.19227731323242186
aF-0.18886599731445314
aF-0.18691033935546875
aF-0.1857158966064453
aF-0.18333711242675782
aF-0.18214802551269532
aF-0.17883503723144531
aF-0.17558258056640624
aF-0.17429199218749999
aF-0.17374563598632811
aF-0.16884329223632813
aF-0.16842903137207033
aF-0.16350303649902342
aF-0.16181822204589844
aF-0.15918627929687501
aF-0.157679443359375
aF-0.15523876953124999
aF-0.15335098266601563
aF-0.15142767333984375
aF-0.14912434387207033
aF-0.14833274841308594
aF-0.14591455078125001
aF-0.14482022094726563
aF-0.13879393005371093
aF-0.1370135498046875
aF-0.13327113342285157
aF-0.13050320434570312
aF-0.12650017547607423
aF-0.12522019958496095
aF-0.12138493347167968
aF-0.11708574676513672
aF-0.11320795440673828
aF-0.10979651641845703
aF-0.10663945770263672
aF-0.10240316772460938
aF-0.10093611145019531
aF-0.096082077026367188
aF-0.093545486450195309
aF-0.090875015258789063
aF-0.089741699218749998
aF-0.085575675964355474
aF-0.082585021972656256
aF-0.079003067016601564
aF-0.075194732666015632
aF-0.073840499877929691
aF-0.070268798828125006
aF-0.068896072387695309
aF-0.065614883422851558
aF-0.062556213378906253
aF-0.060151237487792969
aF-0.058776481628417969
aF-0.053594917297363279
aF-0.051681785583496093
aF-0.047611461639404294
aF-0.044931728363037111
aF-0.042250102996826175
aF-0.038969940185546878
aF-0.036509960174560548
aF-0.034974334716796875
aF-0.031026647567749022
aF-0.027897724151611326
aF-0.026187900543212891
aF-0.023292633056640626
aF-0.019804206848144532
aF-0.015846722602844237
aF-0.009622054100036621
aF-0.0049514021873474125
aF-0.0024861617088317873
aF0.001604132056236267
aF0.0054444441795349118
aF0.0094283132553100585
aF0.0130415678024292
aF0.016127918243408205
aF0.019240217208862306
aF0.023436840057373048
aF0.026347986221313478
aF0.027633859634399415
aF0.031146083831787109
aF0.033095569610595704
aF0.03505154800415039
aF0.036248062133789061
aF0.039251461029052734
aF0.041588829040527346
aF0.043942268371582029
aF0.046788764953613282
aF0.048178714752197267
aF0.050904895782470705
aF0.055057971954345704
aF0.056402774810791013
aF0.061136150360107423
aF0.064586486816406247
aF0.065964622497558592
aF0.07140807342529297
aF0.075081985473632817
aF0.078825065612792969
aF0.080842597961425774
aF0.085403114318847659
aF0.08661892700195313
aF0.089634277343749999
aF0.094053108215332026
aF0.09511601257324219
aF0.098146888732910151
aF0.10121362304687501
aF0.10379955291748047
aF0.10661357116699219
aF0.10945805358886719
aF0.11247776794433594
aF0.11504226684570312
aF0.11761752319335937
aF0.12009043884277344
aF0.124054931640625
aF0.12492831420898437
aF0.12864085388183594
aF0.12983969116210939
aF0.13224143981933595
aF0.13473722839355468
aF0.13920272827148439
aF0.14059617614746095
aF0.14311883544921875
aF0.14601780700683595
aF0.14847344970703125
aF0.15195269775390624
aF0.15679978942871095
aF0.15679978942871095
aF0.15928179931640624
aF0.16192358398437501
aF0.16431488037109376
aF0.16658636474609376
aF0.16878465270996093
aF0.17242510986328125
aF0.17285202026367188
aF0.1744644012451172
aF0.17624772644042969
aF0.17799313354492188
aF0.17895814514160155
aF0.18097358703613281
aF0.18200048828125001
aF0.18446757507324218
aF0.18600160217285155
aF0.18888597106933594
aF0.18968075561523437
aF0.19135379028320312
aF0.19305641174316407
aF0.1945414276123047
aF0.19576864624023438
aF0.19717463684082032
aF0.19886000061035156
aF0.1999149169921875
aF0.20179435729980469
aF0.20497900390625001
aF0.20583000183105468
aF0.20788577270507813
aF0.21083677673339843
aF0.21312199401855469
aF0.2153673858642578
aF0.21819987487792969
aF0.21970553588867187
aF0.22383145141601563
aF0.22514086914062501
aF0.2292610321044922
aF0.23136161804199218
aF0.23427198791503906
aF0.23427198791503906
aF0.23538865661621095
aF0.23625810241699219
aF0.23701728820800783
aF0.23752496337890625
aF0.2376731719970703
aF0.2378470001220703
aF0.23798051452636718
aF0.23801692199707031
aF0.23749313354492188
aF0.23700015258789062
aF0.23666795349121095
aF0.23631855773925781
aF0.23618017578125
aF0.23617724609374999
aF0.23615457153320313
aF0.23630442810058594
aF0.23670486450195313
aF0.23690972900390625
aF0.23718580627441407
aF0.23744178771972657
aF0.23814553833007812
aF0.23879470825195312
aF0.23918345642089844
aF0.23957205200195311
aF0.24014898681640626
aF0.23986456298828124
aF0.2398412628173828
aF0.2396981201171875
aF0.23979415893554687
aF0.23993862915039063
aF0.23987298583984376
aF0.2397779541015625
aF0.23954605102539062
aF0.23942185974121094
aF0.23958369445800781
aF0.23972413635253906
aF0.24005392456054689
aF0.24038720703124999
aF0.24069920349121093
aF0.24088201904296874
aF0.24067001342773436
aF0.24043778991699219
aF0.24016848754882814
aF0.23988380432128906
aF0.23968853759765624
aF0.23955532836914062
aF0.23894911193847657
aF0.23828952026367187
aF0.2372332305908203
aF0.23614012145996094
aF0.23432449340820313
aF0.2336072998046875
aF0.23261929321289063
aF0.23214324951171875
aF0.22990690612792969
aF0.22990690612792969
aF0.22944522094726563
aF0.22916737365722656
aF0.22857414245605467
aF0.22771531677246093
aF0.22732786560058593
aF0.22630142211914062
aF0.22564416503906251
aF0.22415689086914062
aF0.22282907104492186
aF0.22158883666992188
aF0.22068350219726562
aF0.21871981811523439
aF0.21698939514160157
aF0.21520578002929688
aF0.21354246520996092
aF0.21155397033691406
aF0.20995097351074218
aF0.20888597106933593
aF0.20582502746582032
aF0.20447413635253905
aF0.20447413635253905
aF0.19813375854492188
aF0.19659881591796874
aF0.19435070800781251
aF0.19240565490722655
aF0.19093014526367189
aF0.18977711486816407
aF0.18883399963378905
aF0.18755345153808595
aF0.18611407470703126
aF0.18424420166015626
aF0.1820175018310547
aF0.18109655761718749
aF0.17966796874999999
aF0.17726556396484375
aF0.17508860778808594
aF0.17508860778808594
aF0.17355517578124999
aF0.170896240234375
aF0.16734657287597657
aF0.16734657287597657
aF0.16490251159667968
aF0.16187866210937499
aF0.15898573303222657
aF0.15609233093261718
aF0.15318531799316407
aF0.14915785217285157
aF0.1479022216796875
aF0.14179830932617188
aF0.13879547119140626
aF0.13739768981933595
aF0.13454556274414062
aF0.13324542236328124
aF0.13041435241699217
aF0.12635602569580079
aF0.12267453765869141
aF0.12140973663330078
aF0.11795600128173828
aF0.11332653045654296
aF0.11133634948730468
aF0.10791961669921875
aF0.10448904418945312
aF0.1016341781616211
aF0.097663566589355474
aF0.096301925659179693
aF0.092636474609375005
aF0.09001896667480469
aF0.089000953674316402
aF0.085413429260253901
aF0.083113227844238274
aF0.080459831237792975
aF0.07760935211181641
aF0.074922729492187506
aF0.072496940612792965
aF0.069871963500976561
aF0.068505134582519528
aF0.064724319458007815
aF0.063475502014160162
aF0.059313236236572267
aF0.056192886352539065
aF0.053336822509765625
aF0.050746368408203124
aF0.047791709899902342
aF0.045211116790771486
aF0.042401084899902346
aF0.037287403106689453
aF0.033775402069091798
aF0.03190414237976074
aF0.030338970184326172
aF0.024868911743164062
aa(lp518
F-0.0038531830310821534
aF-0.00029457584023475649
aF0.011063158988952637
aF0.010455018043518066
aF0.010403300285339355
aF0.010503767967224121
aF0.010874577522277832
aF0.0115029878616333
aF0.012398508071899414
aF0.013344620704650879
aF0.014307320594787598
aF0.015266157150268555
aF0.016214429855346681
aF0.017126026153564452
aF0.018019704818725585
aF0.018877145767211913
aF0.01970827865600586
aF0.020507915496826172
aF0.021284570693969728
aF0.022031311035156251
aF0.022748306274414064
aF0.02344009017944336
aF0.02409457778930664
aF0.02472475814819336
aF0.025327745437622069
aF0.025839271545410155
aF0.026396112442016603
aF0.026929941177368164
aF0.027444158554077148
aF0.027938488006591797
aF0.028411802291870118
aF0.02886406898498535
aF0.029295482635498048
aF0.029705223083496095
aF0.030100126266479493
aF0.030481168746948242
aF0.030848087310791014
aF0.031112754821777344
aF0.030095726013183593
aF0.028118371963500977
aF0.023348640441894532
aF0.020299892425537109
aF0.01460828971862793
aF0.0086546115875244141
aF0.0012785749435424805
aF-0.0071758923530578613
aF-0.023781112670898438
aF-0.027669038772583008
aF-0.045108844757080081
aF-0.050133197784423829
aF-0.070796424865722657
aF-0.075768043518066402
aF-0.098084762573242182
aF-0.10592611694335938
aF-0.12674890899658203
aF-0.13511134338378905
aF-0.15885438537597657
aF-0.16715052795410157
aF-0.18722500610351561
aF-0.20046533203125
aF-0.20663252258300782
aF-0.21532266235351563
aF-0.22201243591308595
aF-0.22623377990722657
aF-0.22838047790527344
aF-0.22850221252441405
aF-0.2264027862548828
aF-0.22319227600097657
aF-0.21800297546386718
aF-0.21125245666503906
aF-0.20331320190429689
aF-0.19390350341796875
aF-0.17196099853515626
aF-0.15942704772949218
aF-0.15564772033691407
aF-0.14119593811035155
aF-0.12470895385742188
aF-0.10686688995361328
aF-0.089147171020507815
aF-0.071542182922363279
aF-0.052631233215332029
aF-0.03415034103393555
aF9.483586065471173e-06
aF0.020044149398803709
aF0.042043228149414059
aF0.062816753387451171
aF0.083475982666015622
aF0.11530148315429688
aF0.12754234313964843
aF0.14992947387695313
aF0.17247669982910158
aF0.18527055358886718
aF0.21673947143554687
aF0.23194166564941407
aF0.26465148925781251
aF0.27829321289062497
aF0.30066638183593752
aF0.32342590332031251
aF0.35775604248046877
aF0.37885385131835936
aF0.40199099731445315
aF0.41698507690429687
aF0.44819018554687501
aF0.46271899414062501
aF0.49324722290039064
aF0.51581054687500005
aF0.52636181640625002
aF0.54899523925781246
aF0.57128454589843747
aF0.59204248046874997
aF0.61346154785156248
aF0.64529876708984379
aF0.66484722900390625
aF0.68621929931640624
aF0.69700970458984379
aF0.71556042480468751
aF0.73638964843749999
aF0.75016583251953128
aF0.75636389160156248
aF0.76744458007812499
aF0.7706544189453125
aF0.77299444580078125
aF0.77174554443359378
aF0.7701423950195313
aF0.76209790039062497
aF0.75868591308593747
aF0.75027050781250004
aF0.73249334716796877
aF0.72690484619140627
aF0.71310137939453122
aF0.68737188720703124
aF0.6710027465820313
aF0.66286151123046877
aF0.63409094238281249
aF0.61352716064453128
aF0.60400885009765626
aF0.58248480224609378
aF0.5487826538085937
aF0.52557550048828128
aF0.50344488525390629
aF0.48994253540039062
aF0.45567486572265625
aF0.44206857299804686
aF0.40501733398437501
aF0.38007894897460937
aF0.3578150634765625
aF0.33298431396484374
aF0.31955981445312498
aF0.29644381713867185
aF0.27146795654296874
aF0.23406573486328125
aF0.22054316711425781
aF0.18306147766113282
aF0.17212913513183595
aF0.1465147705078125
aF0.12250933837890625
aF0.090032783508300782
aF0.07370719146728516
aF0.049137557983398437
aF0.018511320114135744
aF0.0061702575683593754
aF-0.016256118774414064
aF-0.039168884277343753
aF-0.060628452301025391
aF-0.082942062377929685
aF-0.10453728485107422
aF-0.13794087219238282
aF-0.16019120788574218
aF-0.17111982727050781
aF-0.20392234802246093
aF-0.21335923767089843
aF-0.23489299011230469
aF-0.26814797973632815
aF-0.27537832641601562
aF-0.30658450317382813
aF-0.31790203857421873
aF-0.34684869384765626
aF-0.35842285156249998
aF-0.37809774780273436
aF-0.39866586303710938
aF-0.42243362426757813
aF-0.44284725952148435
aF-0.4557281188964844
aF-0.47248538208007812
aF-0.49099853515625003
aF-0.51155642700195314
aF-0.52986029052734374
aF-0.54793945312500003
aF-0.56785266113281252
aF-0.58720416259765629
aF-0.60485571289062501
aF-0.63214373779296873
aF-0.642876220703125
aF-0.66710449218750001
aF-0.68426776123046873
aF-0.69544232177734377
aF-0.71708532714843753
aF-0.72482830810546872
aF-0.74867938232421871
aF-0.76360107421875001
aF-0.77707299804687502
aF-0.78183685302734374
aF-0.80156127929687504
aF-0.80566638183593753
aF-0.82262805175781251
aF-0.82712145996093756
aF-0.83709033203125005
aF-0.84584375000000001
aF-0.85404217529296877
aF-0.862523193359375
aF-0.86992266845703126
aF-0.87922595214843746
aF-0.88265216064453123
aF-0.89077203369140623
aF-0.89369378662109378
aF-0.90345080566406255
aF-0.9061456909179687
aF-0.91060729980468746
aF-0.91419537353515623
aF-0.91809527587890627
aF-0.9194343872070313
aF-0.92255639648437504
aF-0.9253226928710937
aF-0.92617510986328122
aF-0.92565722656250005
aF-0.92324493408203123
aF-0.91708331298828127
aF-0.91303680419921873
aF-0.90150927734374997
aF-0.89060498046875003
aF-0.87843145751953122
aF-0.87233300781250001
aF-0.85276104736328129
aF-0.83615026855468755
aF-0.82090588378906248
aF-0.79428436279296877
aF-0.78418347167968749
aF-0.76652630615234374
aF-0.74697717285156251
aF-0.72690502929687495
aF-0.70664392089843753
aF-0.68485736083984372
aF-0.67459960937499996
aF-0.63090612792968748
aF-0.62031250000000004
aF-0.59755700683593749
aF-0.57565612792968746
aF-0.55241809082031246
aF-0.52814263916015625
aF-0.50595782470703121
aF-0.49409564208984375
aF-0.45948614501953122
aF-0.43787551879882813
aF-0.42476153564453123
aF-0.40320275878906248
aF-0.37848190307617186
aF-0.35558981323242189
aF-0.32109014892578125
aF-0.29726904296875001
aF-0.28474667358398437
aF-0.26100653076171876
aF-0.23883497619628907
aF-0.21575193786621094
aF-0.19439675903320314
aF-0.17396600341796875
aF-0.15207524108886719
aF-0.11968090820312501
aF-0.098288681030273439
aF-0.08776424407958984
aF-0.056425258636474608
aF-0.036992504119873044
aF-0.01594332790374756
aF-0.0029275829792022707
aF0.024343521118164062
aF0.043408367156982423
aF0.059102718353271487
aF0.074722358703613281
aF0.082085472106933594
aF0.094779365539550783
aF0.11097833251953125
aF0.11518947601318359
aF0.12640238189697264
aF0.13141487121582032
aF0.13314306640625001
aF0.13573616027832031
aF0.13533668518066405
aF0.13301773071289064
aF0.13120993041992188
aF0.12385226440429688
aF0.12119197082519531
aF0.11367953491210937
aF0.098840072631835932
aF0.094767723083496097
aF0.082724929809570316
aF0.070371688842773436
aF0.058134292602539064
aF0.043508380889892576
aF0.029757080078125001
aF0.013322430610656738
aF-0.00073022150993347172
aF-0.016045578002929689
aF-0.032354228973388674
aF-0.059032554626464846
aF-0.064364585876464847
aF-0.089324874877929686
aF-0.097200782775878902
aF-0.11112553405761719
aF-0.12509033966064453
aF-0.14702265930175781
aF-0.15392907714843751
aF-0.16536074829101563
aF-0.1770900421142578
aF-0.18776315307617186
aF-0.20216204833984375
aF-0.21824722290039061
aF-0.21824722290039061
aF-0.22472622680664062
aF-0.231295166015625
aF-0.23602983093261717
aF-0.23941369628906251
aF-0.24186489868164063
aF-0.24452409362792968
aF-0.24486526489257812
aF-0.2453955078125
aF-0.24490188598632812
aF-0.2431254425048828
aF-0.24187689208984375
aF-0.23746981811523438
aF-0.23459591674804686
aF-0.22624961853027345
aF-0.2193966522216797
aF-0.20682276916503906
aF-0.20254684448242188
aF-0.19362504577636719
aF-0.1832194061279297
aF-0.17253733825683593
aF-0.16052801513671874
aF-0.14935990905761717
aF-0.13642475891113282
aF-0.12956593322753907
aF-0.11831084442138672
aF-0.099326454162597652
aF-0.0936261978149414
aF-0.081415611267089849
aF-0.065249954223632806
aF-0.054301776885986329
aF-0.044791950225830081
aF-0.034193470001220701
aF-0.029152891159057618
aF-0.014808727264404296
aF-0.01013633918762207
aF0.0047167911529541013
aF0.012707586288452149
aF0.027645334243774414
aF0.027645334243774414
aF0.03557897186279297
aF0.044072917938232418
aF0.053947898864746095
aF0.067577522277832036
aF0.072285476684570318
aF0.0816327133178711
aF0.090324768066406255
aF0.098386787414550786
aF0.10696079254150391
aF0.11533707427978515
aF0.12363051605224609
aF0.13524021911621092
aF0.14184400939941405
aF0.14508067321777343
aF0.15143008422851562
aF0.15768395996093751
aF0.1675345001220703
aF0.16981353759765624
aF0.17750885009765624
aF0.17977935791015626
aF0.18586618041992187
aF0.18947219848632812
aF0.19126461791992189
aF0.19378172302246094
aF0.19662896728515625
aF0.19824952697753906
aF0.19849038696289062
aF0.19960647583007812
aF0.20022396850585938
aF0.20052069091796876
aF0.20078889465332031
aF0.20085574340820311
aF0.20092337036132812
aF0.20112193298339845
aF0.20117881774902344
aF0.20120895385742188
aF0.20119012451171875
aF0.20150692749023438
aF0.20175332641601562
aF0.20256541442871093
aF0.20302279663085937
aF0.20390588378906249
aF0.20456541442871093
aF0.20534909057617187
aF0.205963134765625
aF0.20702980041503907
aF0.20821177673339844
aF0.20942868041992188
aF0.21133918762207032
aF0.21254728698730468
aF0.21479373168945312
aF0.21562767028808594
aF0.21716453552246093
aF0.21837754821777344
aF0.223623291015625
aF0.223623291015625
aF0.22669549560546876
aF0.22991354370117187
aF0.23285011291503907
aF0.23753147888183593
aF0.23925129699707032
aF0.24294863891601562
aF0.2445961456298828
aF0.24774134826660157
aF0.24993280029296874
aF0.25206738281250002
aF0.25331535339355471
aF0.25591615295410158
aF0.25869433593750002
aF0.26137863159179686
aF0.26351791381835937
aF0.26611831665039065
aF0.2680347900390625
aF0.26925628662109374
aF0.27220376586914063
aF0.27342956542968749
aF0.27342956542968749
aF0.27643109130859372
aF0.2765140380859375
aF0.2774364929199219
aF0.27820892333984376
aF0.27911160278320313
aF0.27981195068359377
aF0.28006472778320313
aF0.28008807373046873
aF0.27972799682617189
aF0.27970373535156251
aF0.2794410400390625
aF0.27918966674804685
aF0.27924966430664061
aF0.27927615356445312
aF0.27966748046875001
aF0.27966748046875001
aF0.27991082763671876
aF0.28090020751953126
aF0.28338806152343748
aF0.28338806152343748
aF0.28562637329101564
aF0.28813891601562502
aF0.29070144653320312
aF0.2935612487792969
aF0.29664208984375001
aF0.30070037841796876
aF0.30192633056640628
aF0.30778424072265625
aF0.3100246887207031
aF0.31092758178710939
aF0.31287954711914062
aF0.31392681884765627
aF0.31606530761718749
aF0.31877951049804687
aF0.32063894653320313
aF0.3210862121582031
aF0.32257513427734374
aF0.32370559692382811
aF0.32441403198242186
aF0.32537002563476564
aF0.32714590454101561
aF0.3288409729003906
aF0.33201467895507814
aF0.33317514038085938
aF0.33611077880859375
aF0.33791207885742186
aF0.33869049072265622
aF0.34047265625000001
aF0.3414142150878906
aF0.34202133178710936
aF0.34188870239257813
aF0.34135510253906248
aF0.34047076416015626
aF0.33965493774414063
aF0.33917239379882813
aF0.33822201538085939
aF0.33766970825195314
aF0.33501730346679687
aF0.33359753417968752
aF0.33206445312499999
aF0.33077856445312498
aF0.32965039062500001
aF0.32791326904296875
aF0.32648785400390623
aF0.32376428222656251
aF0.32142135620117185
aF0.32012622070312502
aF0.3189239501953125
aF0.31461865234375003
aa(lp519
g11
(g13
S'\x0b\x14+\xee$m\x88\xbf'
tRp520
ag11
(g13
S'\xa71\\q\xbe\x00\x90\xbf'
tRp521
ag11
(g13
S'\x9d\xf4\x97\x13n\xfc\x9a\xbf'
tRp522
ag11
(g13
S'\x8fNR\xdb\x83\xfd\xa5\xbf'
tRp523
ag11
(g13
S'\x1fcUN\x84G\xb0\xbf'
tRp524
ag11
(g13
S'Sy\xe4\x9cQ\x07\xb6\xbf'
tRp525
ag11
(g13
S'\xa5\x0f5g]\x9e\xbb\xbf'
tRp526
ag11
(g13
S'H\xa6 O\xf68\xc0\xbf'
tRp527
ag11
(g13
S'\xf6Y\x93\x1d\xff\xfd\xc1\xbf'
tRp528
ag11
(g13
S'\xf9~\x18\xde\x1b\xed\xc2\xbf'
tRp529
ag11
(g13
S'4t\xd8\x14\xd1\xec\xc2\xbf'
tRp530
ag11
(g13
S'@6"\xa8\x91\xfc\xc1\xbf'
tRp531
ag11
(g13
S'\xdb#\xecd\xdf6\xc0\xbf'
tRp532
ag11
(g13
S'8\xce\xa7TO\x9a\xbb\xbf'
tRp533
ag11
(g13
S'\x13\xb1h\xcd \x04\xb6\xbf'
tRp534
ag11
(g13
S'\x1dCF\xf4\xb4F\xb0\xbf'
tRp535
ag11
(g13
S'\xf8\x8a\xb5\x8bs\x02\xa6\xbf'
tRp536
ag11
(g13
S'\xa9\xa2\x1aK\x90\x1a\x9b\xbf'
tRp537
ag11
(g13
S'\xb2\xf9\x01\x8c\xa3.\x90\xbf'
tRp538
ag11
(g13
S'\x90\xaf\xea:Z\xeb\x88\xbf'
tRp539
ag11
(g13
S'2\x84\xf4\x85f\xa23\xbf'
tRp540
ag11
(g13
S'\r\xecDO\xc5\x9a7\xbf'
tRp541
ag11
(g13
S'-\xeac\xd5/c;\xbf'
tRp542
ag11
(g13
S'\xd5)c\x99\xbdr=\xbf'
tRp543
ag11
(g13
S'\xa1\xcd\xc1\xcb\x0f\xfb?\xbf'
tRp544
ag11
(g13
S'O\xdb\xfaqS\x12A\xbf'
tRp545
ag11
(g13
S'\xf38Mm0BB\xbf'
tRp546
ag11
(g13
S':"\x84L\x92PC\xbf'
tRp547
ag11
(g13
S'\xcc\xb3\xc9$k\x9bD\xbf'
tRp548
ag11
(g13
S':\x9f3\x15W\xc1E\xbf'
tRp549
ag11
(g13
S'\x8b\xa7\xe1\xa2\xf2#G\xbf'
tRp550
ag11
(g13
S'sbH\xc1\x85_H\xbf'
tRp551
ag11
(g13
S'a\x84\xb0\x1a\xf7\x1eJ\xbf'
tRp552
ag11
(g13
S'&\x02\xd7\x0fm\xd1K\xbf'
tRp553
ag11
(g13
S'\xf2=\xcda\x19\xf6L\xbf'
tRp554
ag11
(g13
S'7\x10\xa3s\x974N\xbf'
tRp555
ag11
(g13
S'X\xc7\x15\xb0KQO\xbf'
tRp556
ag11
(g13
S'\x84B#\xf2:\rP\xbf'
tRp557
ag11
(g13
S'\xd4\x19\xd7\x11\x87\x16E\xbf'
tRp558
ag11
(g13
S'_\xe7\xcf\xfd\x0e\xef.\xbf'
tRp559
ag11
(g13
S'\xbe\xfd\xe4\xcfKh??'
tRp560
ag11
(g13
S'I\xcb\xffM\x17\x03U?'
tRp561
ag11
(g13
S'\x92g\xad\xc4\x8c\xd8i?'
tRp562
ag11
(g13
S'=\xa4\xfe\x81\xab>u?'
tRp563
ag11
(g13
S'\x1d\x9dZ\xbf\xee\xab~?'
tRp564
ag11
(g13
S'x\xc0\x0f\x9e\xe4\x04\x85?'
tRp565
ag11
(g13
S'^\xd5\\B\xb7\x9a\x8b?'
tRp566
ag11
(g13
S'\xd1\xae\x90s\x9a\xfc\x90?'
tRp567
ag11
(g13
S'\xc9\x99\xa3\xb5m\xd8\x93?'
tRp568
ag11
(g13
S'\xa26\xa0\x9b\xca\x85\x96?'
tRp569
ag11
(g13
S'\xca\xdcn\xb1\xfdQ\x98?'
tRp570
ag11
(g13
S'f\x9d\xf4\xc1&\xb8\x9a?'
tRp571
ag11
(g13
S"*\x8e\x96\xcd'\xb3\x9b?"
tRp572
ag11
(g13
S'$\x7f\xeb\xb3\x88\x85\x9c?'
tRp573
ag11
(g13
S'*\x1e\x88\xcafv\x9d?'
tRp574
ag11
(g13
S'\xae\xdd"\x9fH\xf4\x9d?'
tRp575
ag11
(g13
S'v\xdc6\nb\xb1\x9f?'
tRp576
ag11
(g13
S':\x00XB\xa1\x8b\xa0?'
tRp577
ag11
(g13
S'\xad\xbb_K\xa2\xb0\xa1?'
tRp578
ag11
(g13
S'\x14\xe2x\xdd\xd2\xf2\xa2?'
tRp579
ag11
(g13
S'V\xc8?V\xbf,\xa4?'
tRp580
ag11
(g13
S'\x8e\xae\xa3I\xb1\xae\xa5?'
tRp581
ag11
(g13
S'\xa0\xcf\xf4\x00\xda\xcb\xa6?'
tRp582
ag11
(g13
S'\xa5\xc7{Y\x93\xd4\xa7?'
tRp583
ag11
(g13
S'J9\x13\xb9\x0f\x91\xa8?'
tRp584
ag11
(g13
S'2\x9cG.\xa0\xce\xa8?'
tRp585
ag11
(g13
S'\x02\xfe\xe5\x05\xe3|\xa8?'
tRp586
ag11
(g13
S'\x81!WN\xa1\x9d\xa7?'
tRp587
ag11
(g13
S'Z\xe7\x08\x07)\xa1\xa6?'
tRp588
ag11
(g13
S'\xd4\x1f\xbbW\x82\x17\xa5?'
tRp589
ag11
(g13
S'\xcc>$8\xca\xa4\xa3?'
tRp590
ag11
(g13
S'd\r\xdc\x81\x9b^\xa1?'
tRp591
ag11
(g13
S'\x9b\x0b\xfaj\xbc\xe0\x9e?'
tRp592
ag11
(g13
S'y\x10nz/\x15\x9b?'
tRp593
ag11
(g13
S'W$x\xd7\xca\x95\x96?'
tRp594
ag11
(g13
S'\nX\xa8\xb8\x1f\xd3\x93?'
tRp595
ag11
(g13
S'c\xaf\x08\x0e$K\x90?'
tRp596
ag11
(g13
S'\xa4\xbd\xfc\xb3\xe9K\x8d?'
tRp597
ag11
(g13
S')\xa1\x04\xa2\xbe\xf3\x89?'
tRp598
ag11
(g13
S'M\xa5\xfes\x07\xf1\x88?'
tRp599
ag11
(g13
S'\xb6\x0c+\xb9\x1du\x89?'
tRp600
ag11
(g13
S"-\xa9eC\xdf'\x8b?"
tRp601
ag11
(g13
S'A=h\x89\xe6\xa7\x8e?'
tRp602
ag11
(g13
S'\x03\x11\xc2\x82\x0f\xa3\x90?'
tRp603
ag11
(g13
S'\xd6\xbc\xe0`\xd2\xa3\x91?'
tRp604
ag11
(g13
S'\x15\xe4\x8dn\x926\x93?'
tRp605
ag11
(g13
S'\xa1\x80)w\x0c\xee\x93?'
tRp606
ag11
(g13
S'\xf8|\x8a\xc2\xc2\x1b\x94?'
tRp607
ag11
(g13
S'\xa7\xc8\x92\xb8\xee\xd1\x93?'
tRp608
ag11
(g13
S'\xee\xc4e\x01\x1d\x14\x93?'
tRp609
ag11
(g13
S'\xd0\x13\x817\x8c\x14\x92?'
tRp610
ag11
(g13
S'L\x8c\x91Sv!\x91?'
tRp611
ag11
(g13
S'\x93_K\xca\x17\x7f\x8f?'
tRp612
ag11
(g13
S'\xdd\xe5(\\y\xeb\x8c?'
tRp613
ag11
(g13
S'nw\x9b\xc7\xdf\xb0\x8a?'
tRp614
ag11
(g13
S'\x15\xa0\rh]E\x88?'
tRp615
ag11
(g13
S'\xd6Z\\\x99\xf9\xed\x85?'
tRp616
ag11
(g13
S'\x00\xc7q{\xf8\xa3\x82?'
tRp617
ag11
(g13
S'\x9dH\x11N\x83\x07\x80?'
tRp618
ag11
(g13
S'>~\x8e\xaf\xc8\xa8x?'
tRp619
ag11
(g13
S'""CH\x8ecr?'
tRp620
ag11
(g13
S'\x9fD\x02\x05\t>f?'
tRp621
ag11
(g13
S'1!\xb1;\xc7i9?'
tRp622
ag11
(g13
S'\x1c\xbd\x91\xb5\x9dYV\xbf'
tRp623
ag11
(g13
S's=&\xc1\xd5@f\xbf'
tRp624
ag11
(g13
S'gt\xb2A6+s\xbf'
tRp625
ag11
(g13
S'\x95v\x12\xe4D\xcdx\xbf'
tRp626
ag11
(g13
S'\xf6\xf9W\xfc\x91\x07|\xbf'
tRp627
ag11
(g13
S'\x7f6\x90\xdf\xe2\x90\x7f\xbf'
tRp628
ag11
(g13
S'\x80\xec\xbc\x86G\xec\x7f\xbf'
tRp629
ag11
(g13
S'm\xb6#\xe2O\xef\x80\xbf'
tRp630
ag11
(g13
S'\x9291\x97\xf4"\x80\xbf'
tRp631
ag11
(g13
S'\x80\x1f\xd8\x00\xe4\xa0|\xbf'
tRp632
ag11
(g13
S'\x18\xe0J9o\xd5y\xbf'
tRp633
ag11
(g13
S'|a\xe1\xa8VHt\xbf'
tRp634
ag11
(g13
S'\xa7\xf0\x9c\xf4\xc2vp\xbf'
tRp635
ag11
(g13
S'\xd3n\xa4\xa2|\x96c\xbf'
tRp636
ag11
(g13
S'\xfe\x9b\xbc\xd5\x1a9@\xbf'
tRp637
ag11
(g13
S'\xedT\x13.rgQ?'
tRp638
ag11
(g13
S'K\xe7\xd7\x10\xef\xcbh?'
tRp639
ag11
(g13
S'\xd5\n\xf5\x1f\x0c\x9cr?'
tRp640
ag11
(g13
S'C\xca\x06X$ex?'
tRp641
ag11
(g13
S'v\x96\xc3\xcf+\x11}?'
tRp642
ag11
(g13
S'\x89HGEG/\x7f?'
tRp643
ag11
(g13
S'y\x85\xbf\x06y1\x80?'
tRp644
ag11
(g13
S'\x9b\rwp\xb42\x7f?'
tRp645
ag11
(g13
S'T\x05\xbb\x06\xf8\xc7|?'
tRp646
ag11
(g13
S'\x11r\x1c\xc89\xa5x?'
tRp647
ag11
(g13
S'\x8a\x9dqS\xef|s?'
tRp648
ag11
(g13
S'J\xe5"XQ\xe0j?'
tRp649
ag11
(g13
S'\x1b2\x0f.\xf8oe?'
tRp650
ag11
(g13
S'\xf1\x9dy\xd0\xdb\x03Z?'
tRp651
ag11
(g13
S'\xe9\xc2\x0b(\xf0\x97N?'
tRp652
ag11
(g13
S'\xee\xc6\xca\x03,\xddB?'
tRp653
ag11
(g13
S"\x0f[\xd4R\x94j'\xbf"
tRp654
ag11
(g13
S'\x145\x05\x12i\xdb\x14?'
tRp655
ag11
(g13
S'\\\x01\xd2\xd8n\xbb?\xbf'
tRp656
ag11
(g13
S'P\x8d\x0b\xb1q\x962\xbf'
tRp657
ag11
(g13
S'\xe5\x9b\x13Y=\xe51\xbf'
tRp658
ag11
(g13
S'\x8d\x07\x9c&\xf1wR\xbf'
tRp659
ag11
(g13
S'\xfc6i\xdf\xc3\xdeW\xbf'
tRp660
ag11
(g13
S'\xc9\x16\xfe\xa3\xf7Uc\xbf'
tRp661
ag11
(g13
S'\xd2\t\xfd\x05\xbfad\xbf'
tRp662
ag11
(g13
S'\x85\x8c\xd3?\xaf\tf\xbf'
tRp663
ag11
(g13
S'\xc0R\xaed\xa5\xaej\xbf'
tRp664
ag11
(g13
S'H\x99\x04\x0f\x7f\xacl\xbf'
tRp665
ag11
(g13
S'-.\xb94(\xc0p\xbf'
tRp666
ag11
(g13
S'\xd0\x9f\xa15\x8c\x1cr\xbf'
tRp667
ag11
(g13
S'\xa4%|F\x86&r\xbf'
tRp668
ag11
(g13
S'\x0f\x8bUF^zs\xbf'
tRp669
ag11
(g13
S'\xee\xa7\xf6\xc9\x92us\xbf'
tRp670
ag11
(g13
S'\x1f*\xb0\x0e\xc6\ru\xbf'
tRp671
ag11
(g13
S'\xce\x17\xae\xd4\xcb\x12x\xbf'
tRp672
ag11
(g13
S'b\xdfc\xaf\xcc[z\xbf'
tRp673
ag11
(g13
S'[\xac\xe0\xecMw{\xbf'
tRp674
ag11
(g13
S'c\xa6g\xed\x8f\xee}\xbf'
tRp675
ag11
(g13
S'L\n\xcb\xdaPV|\xbf'
tRp676
ag11
(g13
S'\xccqi\x1d!9}\xbf'
tRp677
ag11
(g13
S'QA\x0b.u\x9a}\xbf'
tRp678
ag11
(g13
S'Q\xfcV||\xd6z\xbf'
tRp679
ag11
(g13
S'd\x05\x9b\xe0\xe5\x04y\xbf'
tRp680
ag11
(g13
S'\xfaK\x88\xf1h2s\xbf'
tRp681
ag11
(g13
S'i\x86\xe3Rjcp\xbf'
tRp682
ag11
(g13
S'\x1a]\xbd\xaa\xa2lk\xbf'
tRp683
ag11
(g13
S'.\xa0\xf4\xca12c\xbf'
tRp684
ag11
(g13
S'\xd3\xa1gb\x088\\\xbf'
tRp685
ag11
(g13
S'\x16[\x86\xe6\xd6\x82X\xbf'
tRp686
ag11
(g13
S'\xe6\x05\xe4\xa1\xa5\x1bZ\xbf'
tRp687
ag11
(g13
S'\x81\xdcj\t\xa2/]\xbf'
tRp688
ag11
(g13
S'\xdah9r\x13\x87`\xbf'
tRp689
ag11
(g13
S'\xb3\xe1\x82\x8f\x90\xd1e\xbf'
tRp690
ag11
(g13
S'\x82\xb3\xfah\x16\rf\xbf'
tRp691
ag11
(g13
S'\x161\xae\xe0\xdc!g\xbf'
tRp692
ag11
(g13
S'\x10r=,T$f\xbf'
tRp693
ag11
(g13
S'\xd05\xd2\xcbl-c\xbf'
tRp694
ag11
(g13
S'b\xdc\xbd\x93D/X\xbf'
tRp695
ag11
(g13
S'\x03a\xec\xb3\xc8\xb5F\xbf'
tRp696
ag11
(g13
S'\xc0%\x1b\xd5@F\xf9\xbe'
tRp697
ag11
(g13
S'\xc5\xf2&$\xbbaS?'
tRp698
ag11
(g13
S'\xd3\x03\xfez\xba\xdfW?'
tRp699
ag11
(g13
S'\xbf\xbaL\xc9\xb0<a?'
tRp700
ag11
(g13
S'9\x9bOU6\x13c?'
tRp701
ag11
(g13
S'O\xbcCE\x1eSg?'
tRp702
ag11
(g13
S'\x1a\xf9\xafq\x89\xdel?'
tRp703
ag11
(g13
S"'x\xa8a\xc6\x17p?"
tRp704
ag11
(g13
S'\xb6f\xad\x8d\xaf\x81r?'
tRp705
ag11
(g13
S'[>\xad9\x9f@v?'
tRp706
ag11
(g13
S'\xc4\xcb\xb3\xa6\x070{?'
tRp707
ag11
(g13
S'd\xfb2\xdc-7}?'
tRp708
ag11
(g13
S'I\x10\x94\xa5\xeff\x80?'
tRp709
ag11
(g13
S'-\xb1!\x8f6\xc2\x81?'
tRp710
ag11
(g13
S'\xcf\xe9\x830\xb6\xcc\x81?'
tRp711
ag11
(g13
S'G"\xa0\x0e\xa2\xe2\x81?'
tRp712
ag11
(g13
S'\xed:\x9f\xf7d\x14\x80?'
tRp713
ag11
(g13
S'AS\xb2\xad8\xf1}?'
tRp714
ag11
(g13
S'\xd4%\xf1g\xd0%y?'
tRp715
ag11
(g13
S"y\xdf'\xa8\\\xe7s?"
tRp716
ag11
(g13
S'\x06\x85\xb4\xcc\xc1dm?'
tRp717
ag11
(g13
S'V\xfb\xa5\x02\xf0\xde`?'
tRp718
ag11
(g13
S'\xa8-A\xb3\x93\x83K?'
tRp719
ag11
(g13
S'F\xfe6\xfc\xc8\xcc\x11\xbf'
tRp720
ag11
(g13
S'\xf1p\x86\xaf\xfb\x84J\xbf'
tRp721
ag11
(g13
S'\xa4v\xe9V:\xf0]\xbf'
tRp722
ag11
(g13
S'<>n\xaa\xf5s^\xbf'
tRp723
ag11
(g13
S'\x13T\x10ZQ\xc7_\xbf'
tRp724
ag11
(g13
S'|\xb0SZD\xc6^\xbf'
tRp725
ag11
(g13
S"\xf0R'\x9b\x17\xa6Z\xbf"
tRp726
ag11
(g13
S'\x1f\xd6.\xf7\xc2\xbaS\xbf'
tRp727
ag11
(g13
S'#M.\xae\x05\x86Q\xbf'
tRp728
ag11
(g13
S'*>$\xd0\x01\xa3P\xbf'
tRp729
ag11
(g13
S'\x19\xf9\xc5\xa4\xf6\xf1S\xbf'
tRp730
ag11
(g13
S'\xf38\x01\x80\xa5e[\xbf'
tRp731
ag11
(g13
S't\x91\x9fA&M`\xbf'
tRp732
ag11
(g13
S'\xbf\xb5)\xa6\x85\x17b\xbf'
tRp733
ag11
(g13
S'\x1e\xf6y\x9d\xd3\xdbe\xbf'
tRp734
ag11
(g13
S'\xa9\x99\x9e\xf9\xc5\x07k\xbf'
tRp735
ag11
(g13
S'G\xff\x93$\xd9*m\xbf'
tRp736
ag11
(g13
S'\x18\xdaP4\x83\xb3l\xbf'
tRp737
ag11
(g13
S'\xed\xa8\xe0C\xe3\x0fl\xbf'
tRp738
ag11
(g13
S'R\xa8\xa0\xe4\x0b\xa8e\xbf'
tRp739
ag11
(g13
S'\xc8\xc4\xce\x08\xc9\x99a\xbf'
tRp740
ag11
(g13
S'1)y\xfe\xb4\xe9\\\xbf'
tRp741
ag11
(g13
S'\xfer\xe6n}\x8bI\xbf'
tRp742
ag11
(g13
S'g\xd5\xba_\x11e7\xbf'
tRp743
ag11
(g13
S'\xd6\xbb\xaaxD\x882?'
tRp744
ag11
(g13
S'+\xd0\x19\xc0\xb4\x10F?'
tRp745
ag11
(g13
S'2>\x98R(\xaaH?'
tRp746
ag11
(g13
S' q\xd7*\n\xb83?'
tRp747
ag11
(g13
S'\xa4\xe1}\xea\xcb^7\xbf'
tRp748
ag11
(g13
S'\xbd\xbd2\xbd\xc80J\xbf'
tRp749
ag11
(g13
S'\x9a\xbe\xe0\xb9\xe4\x00W\xbf'
tRp750
ag11
(g13
S'M\xd4\x97Q>\xb3[\xbf'
tRp751
ag11
(g13
S'\x19\n\xd8,\xcc\xbda\xbf'
tRp752
ag11
(g13
S'b3\xd5\xf7J"d\xbf'
tRp753
ag11
(g13
S'\xf7P\x04\xae\x90\x87g\xbf'
tRp754
ag11
(g13
S'Q\x99\xbaJT\xbcb\xbf'
tRp755
ag11
(g13
S'\x8a\x94L\xdb9\x9ca\xbf'
tRp756
ag11
(g13
S'\xb7O\xee\xfe\xfe\x82b\xbf'
tRp757
ag11
(g13
S'\xbc\x887nX\x92_\xbf'
tRp758
ag11
(g13
S'7{(\x10\x17ma\xbf'
tRp759
ag11
(g13
S'\x96s\xca\x160\xf2e\xbf'
tRp760
ag11
(g13
S'\xeby*\x9c]\x83h\xbf'
tRp761
ag11
(g13
S's\xcd#U\x0c\xe5m\xbf'
tRp762
ag11
(g13
S'\xca\xc9\xe2\xf7a\xbas\xbf'
tRp763
ag11
(g13
S'\x80\xcc\x03\xbe\xda\xaby\xbf'
tRp764
ag11
(g13
S';\xe1c\x9c\xb7\xff\x80\xbf'
tRp765
ag11
(g13
S'\xc4\x9e\xf2\x0b\xe5\x94\x84\xbf'
tRp766
ag11
(g13
S"\x98!h\x05'\xd6\x89\xbf"
tRp767
ag11
(g13
S'P\xff(\x95k\xf0\x8e\xbf'
tRp768
ag11
(g13
S'2\xf8&\xc6?*\x92\xbf'
tRp769
ag11
(g13
S'U\x19\xe0u\xb3\x96\x94\xbf'
tRp770
ag11
(g13
S'\xb9?\xea\x08Lx\x96\xbf'
tRp771
ag11
(g13
S'\xb6]\x9cjQ\xf0\x97\xbf'
tRp772
ag11
(g13
S'\xf3\x97\\_iM\x98\xbf'
tRp773
ag11
(g13
S'R\x06\xd2!\xb8\x8b\x97\xbf'
tRp774
ag11
(g13
S'3\x948g\xcau\x96\xbf'
tRp775
ag11
(g13
S'\xaf\x0b\xfb\x19C\xd5\x94\xbf'
tRp776
ag11
(g13
S'\xb4%\x0f\\`\xd1\x91\xbf'
tRp777
ag11
(g13
S'=\x199\t\xd2\x06\x8f\xbf'
tRp778
ag11
(g13
S'\xcfY>zl\n\x89\xbf'
tRp779
ag11
(g13
S'ijl\xdb\xc5\x03\x83\xbf'
tRp780
ag11
(g13
S'\xc2\xbe\xd7\xce\xd68}\xbf'
tRp781
ag11
(g13
S'w%\xdd\x88\xce?v\xbf'
tRp782
ag11
(g13
S'\xaa\xab\xbb\xacpfq\xbf'
tRp783
ag11
(g13
S'j\x91\x11\x1e\xdf\xcag\xbf'
tRp784
ag11
(g13
S'\x9f\xefa\x8a\x80\x91V\xbf'
tRp785
ag11
(g13
S'\x19I\\\xde\x9c`F\xbf'
tRp786
ag11
(g13
S'\x0cc1`\x9c?&?'
tRp787
ag11
(g13
S'D\xa1\x135\x81J\\?'
tRp788
ag11
(g13
S'\x0b\xbf\xbe\xcc\x99\xabh?'
tRp789
ag11
(g13
S'\xb1\x93\x90\x12\xe0\x9dq?'
tRp790
ag11
(g13
S'\xe5x\xdd\x07\xed\xe2v?'
tRp791
ag11
(g13
S'\xe7"U@\x88\n|?'
tRp792
ag11
(g13
S'~t\xdcK\xe8Y\x7f?'
tRp793
ag11
(g13
S'7E\xea\xfe\xb0C\x80?'
tRp794
ag11
(g13
S'a\x1a\xca\x8fp\x19\x80?'
tRp795
ag11
(g13
S'\xbb\x0e\x9d:\x83\xce\x7f?'
tRp796
ag11
(g13
S'\xc6\x1b\x16"H3|?'
tRp797
ag11
(g13
S'\xa1\xa0\xdd\xa8\xc0*z?'
tRp798
ag11
(g13
S'#=\xd1\xa20\xd9x?'
tRp799
ag11
(g13
S'\xa2\x12\x05\xe9iBw?'
tRp800
ag11
(g13
S'\xa1\x10{\xf2\xe8\xebu?'
tRp801
ag11
(g13
S'\xd8YtO\xf7\xbbt?'
tRp802
ag11
(g13
S'\xed\x96\xc7,Eat?'
tRp803
ag11
(g13
S'\x02\x86c\x17\xb6aq?'
tRp804
ag11
(g13
S'\xd2\xd7\xec\xe6\xd7\xb5j?'
tRp805
ag11
(g13
S'b\x87\xc1\xed\xba)^?'
tRp806
ag11
(g13
S'\x03\xf0\xa8\x1f\xfa\xac#?'
tRp807
ag11
(g13
S'\xed\xe2\xc9\xacRwb\xbf'
tRp808
ag11
(g13
S'\x81Y\x16B$\xa6s\xbf'
tRp809
ag11
(g13
S'>\xa2\x983-3}\xbf'
tRp810
ag11
(g13
S'\x97\xc6\x13\xdf2\xca\x83\xbf'
tRp811
ag11
(g13
S'\x0ck9\x95\xe0G\x86\xbf'
tRp812
ag11
(g13
S'\xb4\x88XnY\x90\x87\xbf'
tRp813
ag11
(g13
S'\xf1\x8dW\xc0\x04\xb4\x86\xbf'
tRp814
ag11
(g13
S'\x97\xbd\x1f\xf2\x9a\xab\x84\xbf'
tRp815
ag11
(g13
S'&I\xa8\xfb \x94\x81\xbf'
tRp816
ag11
(g13
S'\xc9\xc6\x87n\xe9\xe7w\xbf'
tRp817
ag11
(g13
S'\xb0\x18$\xabzYg\xbf'
tRp818
ag11
(g13
S'\xaeJ\xd6\x12\xc5\xa7\x08?'
tRp819
ag11
(g13
S'\xb2Vx\x9d\x1f\xc2c?'
tRp820
ag11
(g13
S'>,\x87q|\xa1q?'
tRp821
ag11
(g13
S'\xe8o\x17(xXw?'
tRp822
ag11
(g13
S'\xbe\x16\x8e\x9f,}x?'
tRp823
ag11
(g13
S'\x16\xa7\xae\xb6\xf52w?'
tRp824
ag11
(g13
S'jn\r\x9f\x17\x9as?'
tRp825
ag11
(g13
S'\xe5\xf0\xf3\xe1\xf2\xaem?'
tRp826
ag11
(g13
S'\xf0\xc0<y\xfeFd?'
tRp827
ag11
(g13
S'\xdf\xef5\xee\x1d\x94R?'
tRp828
ag11
(g13
S'Z\xe0\x95\xf0\xffG1?'
tRp829
ag11
(g13
S'\xdaI\xa42\xfa\xd5?\xbf'
tRp830
ag11
(g13
S'\xa8\x88\ts\x8b%K\xbf'
tRp831
ag11
(g13
S'\x9c\xd8@\xaa\x0e9P\xbf'
tRp832
ag11
(g13
S'\xee\xa4\x02b\xa6\xfeO\xbf'
tRp833
ag11
(g13
S'\xac\x03\x9dGY\xd3L\xbf'
tRp834
ag11
(g13
S'\x91F\x84+C~P\xbf'
tRp835
ag11
(g13
S'\xa7\xd7%d\xcetB\xbf'
tRp836
ag11
(g13
S'\x8c\x06\xd6\x839\x9e9\xbf'
tRp837
ag11
(g13
S'\x8e\x04\x03>\x1a\xde\x1f?'
tRp838
ag11
(g13
S'4Kv\xec\x12ZG?'
tRp839
ag11
(g13
S'\xc4\xce\xae\xa4/hW?'
tRp840
ag11
(g13
S'\\b{\x80\xb5\xc8e?'
tRp841
ag11
(g13
S'x\x84\xdf\xe7\xb0\x92k?'
tRp842
ag11
(g13
S'l\xcc3\\\xab\xbcq?'
tRp843
ag11
(g13
S'\xf3\xa4NF\x88\xcdt?'
tRp844
ag11
(g13
S'\x1f\xa4J\xca\xca\xacu?'
tRp845
ag11
(g13
S'\xd0\xc8lk\xf5\rw?'
tRp846
ag11
(g13
S'\xd9\xe3H\x06\x0e\xb0v?'
tRp847
ag11
(g13
S'\xa8DL\x1d\xe1\x85v?'
tRp848
ag11
(g13
S")X'\x1eJ\x01t?"
tRp849
ag11
(g13
S'\x17\xc6\xc5K\x88\xddq?'
tRp850
ag11
(g13
S'\xb1\x86\xc8\xa6`\x7fo?'
tRp851
ag11
(g13
S'\x91x\xee\xee*0h?'
tRp852
ag11
(g13
S'\xeb\x99\x82\xe6h\x10a?'
tRp853
ag11
(g13
S'\xd1?rZM\xc3S?'
tRp854
ag11
(g13
S'=d\xb1\xaa\x93\x0e5?'
tRp855
ag11
(g13
S'l\x10Q\x91P\xd92\xbf'
tRp856
ag11
(g13
S'@\x99\xe1\t\x86\xb8N\xbf'
tRp857
ag11
(g13
S'\xd8\xe2\xcc\x13\x1a\xd3U\xbf'
tRp858
ag11
(g13
S'b\xa8\xf0\x80\x07\x0bX\xbf'
tRp859
ag11
(g13
S'\xc74UNMDJ\xbf'
tRp860
ag11
(g13
S'.\xdd\x1b\x1aKQ2\xbf'
tRp861
ag11
(g13
S'\xa24\x89\xd9;\x89>?'
tRp862
ag11
(g13
S"\xda}Z'+kP?"
tRp863
ag11
(g13
S'\xf1 \xe3\x85;\x0fT?'
tRp864
ag11
(g13
S'\xd2\xce\x7f)\x00bY?'
tRp865
ag11
(g13
S'\xc2\xd9\xb6\x1c\xe3\xd5V?'
tRp866
ag11
(g13
S'\xe7\xd1Z\xcd-\x92Q?'
tRp867
ag11
(g13
S'\xa7\xa1^Bg\xb8H?'
tRp868
ag11
(g13
S'\xc3\xc3.OA\xeaG?'
tRp869
ag11
(g13
S')\x1c\xb6\x19Q\x9aF?'
tRp870
ag11
(g13
S'\xa9\x93\xb2\xa8\xcb\x07N?'
tRp871
ag11
(g13
S'\x83Y\xb9\xbd\xd1;`?'
tRp872
ag11
(g13
S'\xc2\x06$\x1d\xcd)g?'
tRp873
ag11
(g13
S'\x0fb@a\xd8\x87m?'
tRp874
ag11
(g13
S'\x0f\xe1\x99\x0eOzr?'
tRp875
ag11
(g13
S'k\xcdX4w\xbbt?'
tRp876
ag11
(g13
S'\xb2\xc1\xdf\xb9\xc5\xfbv?'
tRp877
ag11
(g13
S'\xd4\xed\x1b\x87\xe1nw?'
tRp878
ag11
(g13
S'\xb8\x95\x99\xbe\xb1\xf2v?'
tRp879
ag11
(g13
S'\xb1\x9a\xec\xe7+\x04u?'
tRp880
ag11
(g13
S'\xd4[\x89*]\xa9r?'
tRp881
ag11
(g13
S'\xfa\xf0\xc6\xca}\x7fr?'
tRp882
ag11
(g13
S'o\xcflV:\xe2p?'
tRp883
ag11
(g13
S'\xec\xdd$Y\xb9\xb7n?'
tRp884
ag11
(g13
S'\x0c^\xe1V-Vh?'
tRp885
ag11
(g13
S'\xa5F\xeb\xd5e\x0cc?'
tRp886
ag11
(g13
S'"V\xbb\xe7)sT?'
tRp887
ag11
(g13
S'\x1a\xc70\x15\xb3\xc4\x13?'
tRp888
ag11
(g13
S'\x99\xd8c\xe8\xa06X\xbf'
tRp889
ag11
(g13
S'\xa1h\x0f\x10Pgh\xbf'
tRp890
ag11
(g13
S'\xf0\xd2\xd6\t\xcdFr\xbf'
tRp891
ag11
(g13
S'\xe0b\x83\xe6\xaaEx\xbf'
tRp892
ag11
(g13
S'\xadF*\x0b\xb4\x82~\xbf'
tRp893
ag11
(g13
S'o\xebq*\xaf\x1c\x81\xbf'
tRp894
ag11
(g13
S'\x9aP\x81\x16.D\x82\xbf'
tRp895
ag11
(g13
S'\x95\xc1\x1aH\xdc;\x83\xbf'
tRp896
ag11
(g13
S'3\xd5\xb3\xcc&\x19\x84\xbf'
tRp897
ag11
(g13
S'#\x12\xf6\x1a\xc5a\x85\xbf'
tRp898
ag11
(g13
S'\x83\xff\xf1\x9dfl\x85\xbf'
tRp899
ag11
(g13
S'\xb6[\xa3\x1bV\xa1\x85\xbf'
tRp900
ag11
(g13
S'\x80\xc3u\xff\x84\x02\x85\xbf'
tRp901
ag11
(g13
S'\xb7^\xc8\xe0\x1c;\x85\xbf'
tRp902
ag11
(g13
S'\x13ht\x88\xe3O\x84\xbf'
tRp903
ag11
(g13
S'!\x9c\xb7t\xdb\x10\x83\xbf'
tRp904
ag11
(g13
S'\x89O\xd7D\x93O\x81\xbf'
tRp905
ag11
(g13
S'\xcf=z\x15\x0c\xd2~\xbf'
tRp906
ag11
(g13
S'u\x8bH\xc9\xa5"y\xbf'
tRp907
ag11
(g13
S'\xb4OU\xce\xbd>u\xbf'
tRp908
ag11
(g13
S'"\xb4\xfa\x07p_o\xbf'
tRp909
ag11
(g13
S'F\x8e7:\x84\xecg\xbf'
tRp910
ag11
(g13
S"\xa1\xbfY'S\t[\xbf"
tRp911
ag11
(g13
S'\xac2\xe2\x8c\x012T\xbf'
tRp912
ag11
(g13
S'j\xbb\xc2\xf9\xf0\xc84\xbf'
tRp913
ag11
(g13
S'3B\xecy^\xa1/?'
tRp914
ag11
(g13
S'c,\x0f\x11\xbf\xe7B?'
tRp915
ag11
(g13
S'\x19\xaek\xf18\x92V?'
tRp916
ag11
(g13
S'\x03A\x01\x86FP[?'
tRp917
ag11
(g13
S'j\x86\x00\t\x01\xf3b?'
tRp918
ag11
(g13
S'\xfb\x8b\x9b\xe1.\x9bb?'
tRp919
ag11
(g13
S'\xf87\xc5,\x1dxc?'
tRp920
ag11
(g13
S'6\xe8h\x7f\xdc\xabd?'
tRp921
ag11
(g13
S'-\x84\xc0\xce\xba\xe5d?'
tRp922
ag11
(g13
S'\xd4&\x15\x1a\xb8\x85_?'
tRp923
ag11
(g13
S'\x0fv&\xe4\xc6IO?'
tRp924
ag11
(g13
S'\xbah\x91t\x01\x13$?'
tRp925
ag11
(g13
S's\xe0\x84"\t]Q\xbf'
tRp926
ag11
(g13
S'(\xec%\x8e\xb6\x1dd\xbf'
tRp927
ag11
(g13
S'\x12\x04\xc9zF\xdcl\xbf'
tRp928
ag11
(g13
S'[\xf3B\xf4\x9bTs\xbf'
tRp929
ag11
(g13
S'\x9aJ\xbb\xe3\x91Wv\xbf'
tRp930
ag11
(g13
S'\xc1\x92<\xcd\xf6\x0ey\xbf'
tRp931
ag11
(g13
S'\x95l\xe4r\x17\xf6x\xbf'
tRp932
ag11
(g13
S'\x8c\x0f\xed\xf4\xe8\x1cw\xbf'
tRp933
ag11
(g13
S'\xf7T*\x0c\xc3\xb8s\xbf'
tRp934
ag11
(g13
S'cn&\x96`\xc3k\xbf'
tRp935
ag11
(g13
S'I*\x1e{r\x89a\xbf'
tRp936
ag11
(g13
S'\xe0\xa2$0&\x906\xbf'
tRp937
ag11
(g13
S':8\x95\xe3uSS?'
tRp938
ag11
(g13
S'\r\x88\xbdsN\x06e?'
tRp939
ag11
(g13
S"'#?<v'p?"
tRp940
ag11
(g13
S'rZ\x16y\xe2/s?'
tRp941
ag11
(g13
S'.\x1b\xe8g\r\xa2t?'
tRp942
ag11
(g13
S'\n\xd3\x91x\x8e|v?'
tRp943
ag11
(g13
S'\xa8\xe2|\xad\x96\xc2w?'
tRp944
ag11
(g13
S"\xd3\xbc'\xf2\xc7Pw?"
tRp945
ag11
(g13
S'\x14J\xb8\xe1\xfbav?'
tRp946
ag11
(g13
S'u\xe1\n&\x8a[t?'
tRp947
ag11
(g13
S'a\x8d\xf1g\xc0Hr?'
tRp948
ag11
(g13
S'\xa6\xa5\x85\xf6\t\to?'
tRp949
ag11
(g13
S'\xa9\xd3Z\x98\x14Og?'
tRp950
ag11
(g13
S'\x17T \x05\xd6\x17`?'
tRp951
ag11
(g13
S'\x10j\xbbY\x99\x16"?'
tRp952
ag11
(g13
S'\x81Z\x1b\xb1&\xa8R\xbf'
tRp953
ag11
(g13
S'\xfb\xc8d\x1fk\x9bf\xbf'
tRp954
ag11
(g13
S'\xfb0~\xc4\xf3\xb4r\xbf'
tRp955
ag11
(g13
S'\xe6\xb8*\xba\x04\x93y\xbf'
tRp956
ag11
(g13
S'\x81\xf7\xba\x81\x0b\x01\x80\xbf'
tRp957
ag11
(g13
S'x\x8c\x0e\xbb\x101\x82\xbf'
tRp958
ag11
(g13
S'\xf9b\x91\x98NL\x83\xbf'
tRp959
ag11
(g13
S'\xaa\xd0\x9d\x9eL\x03\x83\xbf'
tRp960
ag11
(g13
S'\xe1\x04@p\xb6|\x81\xbf'
tRp961
ag11
(g13
S'\x01\xe27\xe6\xc8@}\xbf'
tRp962
ag11
(g13
S'a/4\xc8*\xb3t\xbf'
tRp963
ag11
(g13
S'\xab\xa1\x11\xa1x\xdff\xbf'
tRp964
ag11
(g13
S'\x86\n\x80}\r\x05A\xbf'
tRp965
ag11
(g13
S'#\n^\x83\xa8(b?'
tRp966
ag11
(g13
S'A\xb8\xa1:Lhq?'
tRp967
ag11
(g13
S'[|:\xa1\xc7Jy?'
tRp968
ag11
(g13
S'E\x0e[O\xe8\xc2~?'
tRp969
ag11
(g13
S'L%\x10\xda\x19U\x81?'
tRp970
ag11
(g13
S'(z/Q#%\x82?'
tRp971
ag11
(g13
S'\xbf\x94\nZ\rD\x84?'
tRp972
ag11
(g13
S'^\xbd\xd4\x17\xf0\xda\x84?'
tRp973
ag11
(g13
S'N\x0b\xd5\x04\xb9\xc8\x84?'
tRp974
ag11
(g13
S'\x90s\x82>\xf4\x1b\x85?'
tRp975
ag11
(g13
S'}\xf2\x1e\xf9\xbbi\x84?'
tRp976
ag11
(g13
S'\x9c\r\x023\x98i\x83?'
tRp977
ag11
(g13
S'\x18\xe6\x80%I\xf4\x80?'
tRp978
ag11
(g13
S'\xe8\xce\xcdf\xb2\xaa|?'
tRp979
ag11
(g13
S'\xbb\x04\x18QJ\xa2u?'
tRp980
ag11
(g13
S'\xad}\x85\x1d\xd3Im?'
tRp981
ag11
(g13
S'\xe5C\xd8=/\xc1a?'
tRp982
ag11
(g13
S'\xa4u\x8a)\xca\xdaR?'
tRp983
ag11
(g13
S'\x1e\x18\x10S\xc6\xb6H?'
tRp984
ag11
(g13
S' \xc2\xe6\xd0\xc7\xb9Q?'
tRp985
ag11
(g13
S'\x92i\xb2C\xf0\xa6]?'
tRp986
ag11
(g13
S'\xc4PW\x83GZj?'
tRp987
ag11
(g13
S'\x98\x94\xe6\xe1PMq?'
tRp988
ag11
(g13
S'pGjW\x1e\xbbv?'
tRp989
ag11
(g13
S'\x02\xd5}=\xa2\x1dz?'
tRp990
ag11
(g13
S']J\x8a\x82:\xc4{?'
tRp991
ag11
(g13
S'UME\x97\xeb(z?'
tRp992
ag11
(g13
S'\x1a\x02\xff\xd4\xb5&u?'
tRp993
ag11
(g13
S"\xa6xU\xae'\xfem?"
tRp994
ag11
(g13
S"'r^\xd8\xdf\x81]?"
tRp995
ag11
(g13
S'\x82\xf6\xf4\x02\xa3\x81"?'
tRp996
ag11
(g13
S'q-\xd2H.\xb8a\xbf'
tRp997
ag11
(g13
S'\x08j\xb3?\x02\xf3n\xbf'
tRp998
ag11
(g13
S'\x9d\xa2#m\xdf\xe2u\xbf'
tRp999
ag11
(g13
S'\x03\xd5\x19\x17G\xc7z\xbf'
tRp1000
ag11
(g13
S'\xe5r\x16oa\x13~\xbf'
tRp1001
ag11
(g13
S'\x0b\xd9\xf6\x1f3\xc3\x7f\xbf'
tRp1002
ag11
(g13
S'\xcc\xa40u\x8b<\x80\xbf'
tRp1003
ag11
(g13
S'm\xb8\xcd9\x92\x0c\x7f\xbf'
tRp1004
ag11
(g13
S'\xee\xdd\xa9\xbc\xd2\x1b|\xbf'
tRp1005
ag11
(g13
S'q\x88\x07iyZy\xbf'
tRp1006
ag11
(g13
S'\x8es=\xfblzu\xbf'
tRp1007
ag11
(g13
S'\x19{\xcf8\x00\xd6m\xbf'
tRp1008
ag11
(g13
S'\xb8\x1a\xcc\x91\xe6\xb6b\xbf'
tRp1009
ag11
(g13
S'\x81\x04\xf8\xd16dD\xbf'
tRp1010
ag11
(g13
S'\xcf\xbe\xff\xbb\xef\x8bH?'
tRp1011
ag11
(g13
S'\xa8\xc8\x18\x12\xdc^]?'
tRp1012
ag11
(g13
S'\xeex\xa1\xdc\xd1\x85e?'
tRp1013
ag11
(g13
S'[\xbe\x1a\xf0\x95Jl?'
tRp1014
ag11
(g13
S'\x8c\xe4\x9f\xdb!|o?'
tRp1015
ag11
(g13
S'xQ\x9b\x97{6n?'
tRp1016
ag11
(g13
S'\xd6\x81BM\xd2\x8fp?'
tRp1017
ag11
(g13
S'\x89\xffp\xd7\xf0yo?'
tRp1018
ag11
(g13
S':\xcfX\x15a_p?'
tRp1019
ag11
(g13
S'\xb6\x9f\x8a\xf7\x12\x91q?'
tRp1020
aag519
asS'pos'
p1021
(lp1022
(lp1023
F0.44566315423785741
aF0.44565953329002722
aF0.44566782875071792
aF0.44567171591258664
aF0.44567353897867906
aF0.44567352354091533
aF0.44566238878211384
aF0.44564983629267885
aF0.44562929456937989
aF0.44560134547696068
aF0.44556608105394951
aF0.44552579238358503
aF0.44546327943310465
aF0.44541690268721773
aF0.44534607979796548
aF0.44527390680918283
aF0.4451692356365895
aF0.4451164818967161
aF0.44502313338327604
aF0.44492256804402824
aF0.44481486348486743
aF0.44468836392569244
aF0.44457209276592996
aF0.44444307577785286
aF0.44432105381529968
aF0.44417284198424384
aF0.44402505927547609
aF0.44383162633552542
aF0.44371865357089263
aF0.44354421789029513
aF0.44340686852879152
aF0.44318551581009863
aF0.44301141052920956
aF0.44282307158663586
aF0.44261985351487165
aF0.44243115784528886
aF0.44222791818922058
aF0.4420214664508661
aF0.44178433068476231
aF0.44151293405747766
aF0.44114994931788742
aF0.44075488574344662
aF0.44021147120876586
aF0.43953598759441265
aF0.43870150900258648
aF0.43769176171021396
aF0.43628681012413978
aF0.43507351948085893
aF0.43326634242240469
aF0.43158708619907432
aF0.42948270611403622
aF0.42725066038425275
aF0.42393295377875173
aF0.42142182518069615
aF0.41804977068510063
aF0.41492699358026347
aF0.41042136020819892
aF0.40722738719330126
aF0.40282432758031528
aF0.39821255028386721
aF0.39387523061479385
aF0.38941298945370389
aF0.3846054119155673
aF0.37971314490998809
aF0.37451234685655915
aF0.36977362055345536
aF0.36451384503290268
aF0.35975324508898721
aF0.3547598444634803
aF0.34979968286809621
aF0.34488632931662339
aF0.34002980206497885
aF0.33475444401222321
aF0.33002815276878378
aF0.3258321802942834
aF0.32123391250535177
aF0.31669860931318755
aF0.31244610147409618
aF0.30757747023080423
aF0.3031933914307412
aF0.29905703375509957
aF0.29472735868727162
aF0.28997267005194072
aF0.28542211747990875
aF0.2815050796486851
aF0.27756741311364236
aF0.27249522794452635
aF0.26556880885346612
aF0.26308288778025224
aF0.25760101738934071
aF0.25436543516903987
aF0.24992812254010799
aF0.24497219851758195
aF0.24019946672169562
aF0.23537239771007193
aF0.23049128744734276
aF0.22630301694706031
aF0.2208372783665852
aF0.21483002161751119
aF0.21105691695945988
aF0.20549946019912169
aF0.20093683796070483
aF0.19381981940752935
aF0.19076497737782638
aF0.18491009523386387
aF0.18134439150439785
aF0.17548088719768323
aF0.17038328226349966
aF0.16529264403186025
aF0.15970347870071094
aF0.15488705505005132
aF0.15007965747565111
aF0.14452611224777587
aF0.13948051372612619
aF0.13493727913673825
aF0.12988435520568561
aF0.12482286054080009
aF0.11924473376842838
aF0.1144110314007501
aF0.10827445282499108
aF0.10416345490821569
aF0.099263484611461561
aF0.094082374372003216
aF0.088876542320290075
aF0.083649313684976828
aF0.078400069454392207
aF0.073389163131868232
aF0.06782307138757894
aF0.062229898924552489
aF0.056878639823484296
aF0.05177605100813288
aF0.045582417693235275
aF0.040731432615060209
aF0.035344172516490351
aF0.030235088596840886
aF0.024870422524460256
aF0.01952193249900613
aF0.01339299450379244
aF0.0080872623258293613
aF0.0022811910842300896
aF-0.0019189979061945434
aF-0.0074040193678980189
aF-0.012342400927288943
aF-0.017258792777503126
aF-0.022920943890399482
aF-0.028039259950081691
aF-0.032364524482804281
aF-0.03337900143281506
aF-0.03337900143281506
aF-0.04246233807101648
aF-0.052200858772858273
aF-0.052200858772858273
aF-0.052200858772858273
aF-0.06209979528935184
aF-0.072425036378840596
aF-0.077324987867837314
aF-0.082462034924000727
aF-0.086861946011266705
aF-0.092234549064845475
aF-0.097356105906286808
aF-0.10174309864854236
aF-0.10661328796614829
aF-0.11147447947829282
aF-0.11632489598022425
aF-0.1211566458385776
aF-0.12644548838110012
aF-0.13122611241595358
aF-0.13597721108073729
aF-0.14046353476479176
aF-0.14656186125264678
aF-0.14959225254586103
aF-0.15422539581490116
aF-0.15905927469390369
aF-0.16317732017099149
aF-0.16795256921002252
aF-0.17089570479983671
aF-0.1785609714825781
aF-0.18148190710206472
aF-0.18618525460146229
aF-0.19042017858721816
aF-0.19529171545360019
aF-0.19946845395420418
aF-0.20383162452377765
aF-0.20816499066033223
aF-0.21224741341325692
aF-0.21671450938817757
aF-0.22070762024059312
aF-0.22464939516140467
aF-0.22894343004209164
aF-0.23297498812209999
aF-0.23714827533369595
aF-0.24203823753896361
aF-0.24474212090466932
aF-0.24932747403270725
aF-0.25272759607164907
aF-0.25628189662013601
aF-0.25998833517521852
aF-0.26146091909529218
aF-0.26763758624645151
aF-0.27032181852874287
aF-0.27156458921566995
aF-0.27156458921566995
aF-0.27856539982314321
aF-0.27856539982314321
aF-0.28536859472551351
aF-0.28536859472551351
aF-0.29437678658709315
aF-0.29756287537250092
aF-0.3007082024361607
aF-0.30381725894464595
aF-0.30689165129138796
aF-0.31023744507516704
aF-0.31279812545231384
aF-0.31739832934029183
aF-0.31885683691825051
aF-0.32427560126448018
aF-0.32593882087114601
aF-0.32757796042952098
aF-0.33038554117049201
aF-0.33298802540527583
aF-0.33514230832506797
aF-0.33761559173510125
aF-0.34001753222143838
aF-0.34234839133801126
aF-0.34449888629122916
aF-0.34680730448295288
aF-0.34893772066730294
aF-0.3508996759087365
aF-0.35330361043264824
aF-0.35524805939097681
aF-0.35732259785875081
aF-0.35888046882193836
aF-0.36066273158586504
aF-0.36255740657010305
aF-0.36429745018996773
aF-0.3662813934918242
aF-0.3662813934918242
aF-0.36817012158159562
aF-0.3684638114794121
aF-0.3684638114794121
aF-0.37105979039031428
aF-0.37365791080428279
aF-0.37365791080428279
aF-0.37600630696169079
aF-0.37600630696169079
aF-0.37858654696966165
aF-0.37958219110859709
aF-0.38056452126288859
aF-0.38144042285554763
aF-0.38230074484981241
aF-0.38291434454480583
aF-0.38370004612604436
aF-0.38435156745329374
aF-0.38488133380559175
aF-0.38538246433701107
aF-0.3858559400070789
aF-0.38624408712275743
aF-0.38654245606957877
aF-0.38671914603918384
aF-0.3867964884354218
aF-0.38680769466100096
aF-0.38673732321284582
aF-0.38657604679643781
aF-0.38634665794266149
aF-0.3860453555846744
aF-0.38567863712557193
aF-0.38522812546037516
aF-0.38473763135245959
aF-0.38473763135245959
aF-0.38473763135245959
aF-0.38374600712251861
aF-0.38243966789999917
aF-0.38243966789999917
aF-0.38096723113146341
aF-0.38096723113146341
aF-0.37926711568910537
aF-0.37926711568910537
aF-0.37729632984013789
aF-0.37621544347420272
aF-0.37501906482153291
aF-0.37404681809965812
aF-0.37228535704697457
aF-0.3716473462601102
aF-0.37024819668314013
aF-0.36891383292979552
aF-0.36721165895185909
aF-0.36524638450134667
aF-0.36417828362677634
aF-0.36196681992820118
aF-0.3607355722437714
aF-0.36028905191275579
aF-0.36028905191275579
aF-0.35716089227025233
aF-0.35367639965483028
aF-0.35367639965483028
aF-0.34969811004993223
aF-0.34969811004993223
aF-0.34473905689204515
aF-0.34249048078683264
aF-0.3401910976639721
aF-0.33783961595974304
aF-0.33544013177243226
aF-0.33262196909336578
aF-0.33050027502947626
aF-0.32757620614964661
aF-0.32524626101206366
aF-0.32274536903718709
aF-0.32006339760964997
aF-0.31705179987656179
aF-0.31453784511910282
aF-0.31169644038346245
aF-0.30880162988512982
aF-0.30585872232666517
aF-0.30511525712381615
aF-0.29891204840918817
aF-0.29891204840918817
aF-0.29891204840918817
aF-0.29249934679737105
aF-0.29249934679737105
aF-0.28586984283847972
aF-0.28586984283847972
aF-0.27515434667937361
aF-0.27326947287139286
aF-0.26963973912461631
aF-0.26631871020519576
aF-0.26296834443296691
aF-0.25976906760014334
aF-0.25582563656388146
aF-0.25257228046559271
aF-0.24690752546970504
aF-0.24376630703838834
aF-0.23909940285667097
aF-0.23627398392862872
aF-0.23361956488263053
aF-0.22998911416130496
aF-0.2249712303673892
aF-0.22205450477231761
aF-0.21774640056527356
aF-0.215577402988719
aF-0.21060509732494728
aF-0.2065828130143858
aF-0.20251793575519339
aF-0.19882482514839694
aF-0.1944741808044087
aF-0.18965823779673066
aF-0.18860363622732423
aF-0.18860363622732423
aF-0.1809210618214237
aF-0.1809210618214237
aF-0.17262606658858351
aF-0.17262606658858351
aF-0.1634466217846359
aF-0.153812538126329
aF-0.14775213484474525
aF-0.14634500429688338
aF-0.14470129068210388
aF-0.13786125192528267
aF-0.13786125192528267
aF-0.12813612669016186
aF-0.12813612669016186
aF-0.11671387000594552
aF-0.11218532622605033
aF-0.10717987080266445
aF-0.10289733027860969
aF-0.097909603507057588
aF-0.09316271310394536
aF-0.086284088124526051
aF-0.082966419759236271
aF-0.078700941921155843
aF-0.073960557464764126
aF-0.068979628146126126
aF-0.064467851158617848
aF-0.059948419320133756
aF-0.054945346092067686
aF-0.050411232238705507
aF-0.046107073250929442
aF-0.038909450812507573
aF-0.035299792435033714
aF-0.031201100910235358
aF-0.025646464450507694
aF-0.02105881158005201
aF-0.016714282186986534
aF-0.011646873138153092
aF-0.0065792944398014291
aF-0.0019952791141755544
aF0.0025893332653574757
aF0.0074140141693090581
aF0.012233221669258179
aF0.017532465235431061
aF0.0223517357110091
aF0.026692634634949745
aF0.031519297875938782
aF0.036352510843827235
aF0.041434432337972421
aF0.046036140355638661
aF0.051120783164585307
aF0.057165950432137583
aF0.061030716339771057
aF0.065855221418296264
aF0.070193775250097179
aF0.075254901383356984
aF0.080064603713451463
aF0.084619947472569276
aF0.089397996256076348
aF0.094155765250042295
aF0.098889836653280119
aF0.10359715012475924
aF0.10851751527124354
aF0.11085360804087503
aF0.11085360804087503
aF0.12223506255446819
aF0.12685900660376753
aF0.13147407748017464
aF0.13584634963181483
aF0.14089630597422553
aF0.14524695217075861
aF0.15118251457612067
aF0.15459343578887935
aF0.15934590467542689
aF0.16339507639766093
aF0.17031622448542183
aF0.17231176162401801
aF0.17693896077510171
aF0.18131092815906161
aF0.18543316327329229
aF0.18974156964426103
aF0.19444626713112095
aF0.19911510808357535
aF0.20269220109569275
aF0.207068373865884
aF0.21016493987764759
aF0.21016493987764759
aF0.21016493987764759
aF0.2172920500251391
aF0.22682432489889451
aF0.23072440888831358
aF0.23459382879069407
aF0.23843738878802065
aF0.24225709163086137
aF0.24605175734636489
aF0.24981341310822083
aF0.2535396048865784
aF0.25723543419349926
aF0.26089975869183957
aF0.26471520207751881
aF0.26849529259907884
aF0.27348261401303947
aF0.27348261401303947
aF0.27892801229496472
aF0.28325265044167081
aF0.28699894872139348
aF0.28901988115352883
aF0.29234824666672921
aF0.29561815662934393
aF0.29883249464988765
aF0.3021477259472633
aF0.30524740478439666
aF0.30844662734650408
aF0.31128717123428079
aF0.31436217999263966
aF0.31637456034905609
aF0.31807193525135224
aF0.32344458009321053
aF0.32438718265375088
aF0.32782717621888463
aF0.33142664156757662
aF0.33329823487982951
aF0.33537965527984998
aF0.33800816069686401
aF0.34112779532163934
aF0.34112779532163934
aF0.34112779532163934
aF0.34531391812938
aF0.34531391812938
aF0.34937100393133091
aF0.34937100393133091
aF0.35494280805532297
aF0.35680290306815488
aF0.35834979875000433
aF0.36030272530958779
aF0.36211005994344247
aF0.3637812168672292
aF0.36555411510276403
aF0.36695083183572591
aF0.36845137673317929
aF0.36982516496937862
aF0.37108621915761214
aF0.3726421834305933
aF0.37374742686634582
aF0.37536365127466187
aF0.37676499340392311
aF0.37776082830693597
aF0.37855843445034093
aF0.37962162203885252
aF0.38053128949695808
aF0.38147507394376823
aF0.38284309030751523
aF0.38354753272106262
aF0.38381021294173923
aF0.38424123022617207
aF0.38479562575673704
aa(lp1024
F0.21694813316701619
aF0.21695873036415675
aF0.21723123280421128
aF0.21740211659375402
aF0.21761971542305394
aF0.2176300386449436
aF0.21806466583310624
aF0.21826987646533336
aF0.21851360733387262
aF0.21877624011966429
aF0.21905828198040492
aF0.21934441420257678
aF0.21974614696126515
aF0.22001979670350347
aF0.22041367548704652
aF0.22079050718526599
aF0.22130547632073017
aF0.22155311247433168
aF0.22197761493001178
aF0.22241745077260627
aF0.22287202071799156
aF0.22338805765598466
aF0.22384730721067678
aF0.22434320275133798
aF0.22480038481072617
aF0.22534430102718478
aF0.2258740028832254
aF0.22655115534120235
aF0.22693830774810508
aF0.22752751560044535
aF0.22798398811973739
aF0.22870855119567027
aF0.22926892055775053
aF0.22986694090882284
aF0.23050349107261256
aF0.23108705090327319
aF0.2317086364529182
aF0.23233592585403129
aF0.23297933573526794
aF0.2335552331704964
aF0.23408830183965823
aF0.23446495153415803
aF0.23478189918050474
aF0.23497568000731089
aF0.23501870289954896
aF0.23489353106401956
aF0.23451082079471003
aF0.23405534741494013
aF0.23322743112729741
aF0.232350002432996
aF0.23113273178250587
aF0.22973938296979582
aF0.22751488417999055
aF0.22573862394081093
aF0.2232581846532927
aF0.22087754365881887
aF0.21729940114695881
aF0.21466625536208586
aF0.21091956646618817
aF0.20688142178249458
aF0.20300267175626896
aF0.19896381192502499
aF0.19458083455980307
aF0.19010710501984296
aF0.18536454715075232
aF0.18107397752849663
aF0.17637457334285758
aF0.1721894852990557
aF0.1678890574744305
aF0.16372938179549301
aF0.15972920959327935
aF0.15593051154409746
aF0.15201502759025015
aF0.14872098927852032
aF0.14598692266275157
aF0.14323297322186926
aF0.14078321100684038
aF0.13877528822144736
aF0.1368366026864905
aF0.13545893412279661
aF0.13448971957649636
aF0.13385453608694889
aF0.13361848646099089
aF0.13384695904499358
aF0.13441473892571729
aF0.13533918870341061
aF0.13702437186309624
aF0.14020601876867322
aF0.14159433658741041
aF0.14508994221900379
aF0.14742958317767327
aF0.1509712199376905
aF0.15534315919746236
aF0.15998955662734846
aF0.16511202168134098
aF0.17069842322950171
aF0.17580849607682741
aF0.18293582751073909
aF0.19135116309913738
aF0.19695354417987612
aF0.20562231366575109
aF0.21312700231587883
aF0.22553970124813597
aF0.23114044649043899
aF0.24230198847916437
aF0.24938627736195829
aF0.26147948997168452
aF0.27245469136592609
aF0.28386991557964536
aF0.29693366571328506
aF0.30863781688195036
aF0.32071454553326045
aF0.33516315615250403
aF0.34872931746514052
aF0.36128600257062932
aF0.37558090328126187
aF0.39019874836083279
aF0.40659963565706908
aF0.42098774604198608
aF0.43936790519050489
aF0.45171117415462458
aF0.46641111096845428
aF0.48188347397652481
aF0.49730446325099925
aF0.51263147733415682
aF0.52782031055373546
aF0.54208279548042249
aF0.55761207124867107
aF0.57287935017538238
aF0.58712693076750933
aF0.60037910103716863
aF0.6160154813773655
aF0.62791546803495801
aF0.64078294433774319
aF0.65265834999391326
aF0.66475403729078775
aF0.6764337540701455
aF0.68931674060337988
aF0.70004066903144579
aF0.71130538290420975
aF0.71911956426839418
aF0.72891757177156558
aF0.73732836934871837
aF0.74529804887271989
aF0.75395814317827936
aF0.76133439182720164
aF0.76721572232796775
aF0.76854875381525045
aF0.76854875381525045
aF0.77966039664797193
aF0.78990454324930692
aF0.78990454324930692
aF0.78990454324930692
aF0.79842307137394075
aF0.80525462239389678
aF0.80775089629252972
aF0.80986929802279173
aF0.81126380059987846
aF0.812462774283922
aF0.81307366720374408
aF0.81319682236572022
aF0.81290663780879846
aF0.8121638889003262
aF0.81096350033509279
aF0.80931104453551661
aF0.80699298278506204
aF0.80443387927125576
aF0.80143600724761288
aF0.79818985173942147
aF0.7931101523071491
aF0.79030557909379417
aF0.78563104472552425
aF0.78026870335923915
aF0.77530941885237492
aF0.76911361314043192
aF0.76505072976011568
aF0.75363200309359202
aF0.74895384767165396
aF0.74105828828173481
aF0.73353875258261336
aF0.72439760269806763
aF0.71612087035833738
aF0.70702874358847845
aF0.69757516807168407
aF0.68823372660701743
aF0.6774919363600248
aF0.66742122956326777
aF0.65700788520010267
aF0.64509621621018898
aF0.63336945651627719
aF0.62065974751764375
aF0.60501386272639313
aF0.59599922074924805
aF0.58014897685610889
aF0.56792907106234414
aF0.55473079357449784
aF0.54052638323936153
aF0.5347632755742896
aF0.5096958139180553
aF0.49837495804581006
aF0.49302990928451834
aF0.49302990928451834
aF0.46188110944460148
aF0.46188110944460148
aF0.42976479016986413
aF0.42976479016986413
aF0.38424332326369715
aF0.36733764339743336
aF0.3502628738943766
aF0.33302849360506886
aF0.31564870132877992
aF0.29637299469499118
aF0.28137600710521188
aF0.2538172685368888
aF0.24486918027905491
aF0.21065023767115879
aF0.1997715008894618
aF0.18886452182937702
aF0.16970296005895494
aF0.15137806843406368
aF0.1357470049189945
aF0.1173027364304539
aF0.098807935071938635
aF0.080294433810069565
aF0.062712115621558748
aF0.043325021445699025
aF0.024942600535129082
aF0.0075904543428100581
aF-0.014130899879213916
aF-0.03202703861644729
aF-0.051448402764541455
aF-0.06624256408946072
aF-0.083398564923667581
aF-0.10192226254064422
aF-0.11924679459533342
aF-0.13939072939859232
aF-0.13939072939859232
aF-0.15896463119234081
aF-0.16204515276931378
aF-0.16204515276931378
aF-0.18973673079370032
aF-0.21813084633088181
aF-0.21813084633088181
aF-0.24420347359617647
aF-0.24420347359617647
aF-0.27341268450069012
aF-0.28509454693313252
aF-0.29687405683584767
aF-0.307614465950169
aF-0.31840020192221918
aF-0.32628124498480737
aF-0.33664658889187016
aF-0.34558101496109861
aF-0.35322862292441448
aF-0.36090835414180877
aF-0.36888702582634436
aF-0.37635897608342073
aF-0.3836212408769622
aF-0.38972656998993538
aF-0.39454980537428452
aF-0.39979919182580503
aF-0.40460497687501512
aF-0.40916619423677369
aF-0.41306612926007585
aF-0.41652885072684909
aF-0.41956627725995316
aF-0.42228235822694499
aF-0.42443270677001232
aF-0.42443270677001232
aF-0.42443270677001232
aF-0.42716866750617072
aF-0.4287282365186651
aF-0.4287282365186651
aF-0.42866242266584975
aF-0.42866242266584975
aF-0.4270266258701817
aF-0.4270266258701817
aF-0.42394066541473935
aF-0.42194528547323046
aF-0.41960404433485277
aF-0.41764139364036901
aF-0.41404561855077032
aF-0.41275265211677542
aF-0.40996780963572377
aF-0.40740584314717976
aF-0.40429634671159725
aF-0.4009632927092775
aF-0.39927077240979858
aF-0.3960042505362481
aF-0.39433200406188279
aF-0.393751289643476
aF-0.393751289643476
aF-0.3900847402114318
aF-0.38684885912177075
aF-0.38684885912177075
aF-0.38421126551761847
aF-0.38421126551761847
aF-0.3824464000009149
aF-0.38217828361355416
aF-0.3822044806139055
aF-0.38254816154292015
aF-0.3832240093585344
aF-0.38441399055963893
aF-0.38555309291141143
aF-0.38746672080305
aF-0.389244130483062
aF-0.39137204151878363
aF-0.39389245152923108
aF-0.3969903893288077
aF-0.39977534444223062
aF-0.40309428114137391
aF-0.40665039454155588
aF-0.41041791947621065
aF-0.4113920406193971
aF-0.41980002997960258
aF-0.41980002997960258
aF-0.41980002997960258
aF-0.42887181897184401
aF-0.42887181897184401
aF-0.43846936849063417
aF-0.43846936849063417
aF-0.45399736747888103
aF-0.45670047897022192
aF-0.46187113674602831
aF-0.46654155774505263
aF-0.47118662579588583
aF-0.47555622849103146
aF-0.48083085345035131
aF-0.48507176248250666
aF-0.49216950764536027
aF-0.49592196549064227
aF-0.50123488813389694
aF-0.50429116916172945
aF-0.50705281601725805
aF-0.51065141350536092
aF-0.51526414395737896
aF-0.51774690194908946
aF-0.52114509955296362
aF-0.52273525188835934
aF-0.52605509787062033
aF-0.52844649837938296
aF-0.53058976101592314
aF-0.53230764166462707
aF-0.53406912046884181
aF-0.53571235228670622
aF-0.53603276526327703
aF-0.53603276526327703
aF-0.53794340611712688
aF-0.53794340611712688
aF-0.53925699858478093
aF-0.53925699858478093
aF-0.53988887558037812
aF-0.53971941101397725
aF-0.53921229267661053
aF-0.53904636687512242
aF-0.5388381967397482
aF-0.53774202262332926
aF-0.53774202262332926
aF-0.53553163660423442
aF-0.53553163660423442
aF-0.53196214177198831
aF-0.53026314319272294
aF-0.52820706077522273
aF-0.52629652131724081
aF-0.52390050056471704
aF-0.52145827487757113
aF-0.51764696278026356
aF-0.5156997084815883
aF-0.51310172527610864
aF-0.51009084409104122
aF-0.50678986633932177
aF-0.50368893085700028
aF-0.50048609913053987
aF-0.49683897481332095
aF-0.49345599541645402
aF-0.49017957387416144
aF-0.48458452046780631
aF-0.48173189688451035
aF-0.47846873510548155
aF-0.47400762592708107
aF-0.47028853432612083
aF-0.46674646052620361
aF-0.46259496986799703
aF-0.45843253214273672
aF-0.45465711995734037
aF-0.45087527713577513
aF-0.4468925385382374
aF-0.44290779482320375
aF-0.4385232868527999
aF-0.4345366864276467
aF-0.43094538023756396
aF-0.42695242140755096
aF-0.42295389732986816
aF-0.41874965352598537
aF-0.4149322550966007
aF-0.41070387966109845
aF-0.40565114452668383
aF-0.40240437650026711
aF-0.39833435281361829
aF-0.39465545396058677
aF-0.39034434409416802
aF-0.3862146731390908
aF-0.3822675269238256
aF-0.37807983747682355
aF-0.37386656034312105
aF-0.36962568627777559
aF-0.36535137715776383
aF-0.36082692357239216
aF-0.35865742731798445
aF-0.35865742731798445
aF-0.34787194517296915
aF-0.34337265749353219
aF-0.33880734498392912
aF-0.33441251454265519
aF-0.32925682939769996
aF-0.32474408190892179
aF-0.31848877518668556
aF-0.31484307264140865
aF-0.30969369167821381
aF-0.30523528683429446
aF-0.29747505800068424
aF-0.29520261100922129
aF-0.28985945328300444
aF-0.2847172682077555
aF-0.27978282345082656
aF-0.27454707243275173
aF-0.26874109350422781
aF-0.26288809255628764
aF-0.25833104880821278
aF-0.25265969929360832
aF-0.24858147772135086
aF-0.24858147772135086
aF-0.24858147772135086
aF-0.23900464259001455
aF-0.2257994972370955
aF-0.22026999744825076
aF-0.21472258957689791
aF-0.20915929990497684
aF-0.20358689364851831
aF-0.19801048243190489
aF-0.19244013028667833
aF-0.18687220952052266
aF-0.1813089504084596
aF-0.17575038973328033
aF-0.16991319154349668
aF-0.16407649107003894
aF-0.15628494377723279
aF-0.15628494377723279
aF-0.14764042795167717
aF-0.14064564061976528
aF-0.13445461845973283
aF-0.13106016758115191
aF-0.12536639033932945
aF-0.11962226481680503
aF-0.11382831192039218
aF-0.1076843478257368
aF-0.10177165689737321
aF-0.095506406418320311
aF-0.089782960051638813
aF-0.083390577648966499
aF-0.079095952583382409
aF-0.075394784230157358
aF-0.063263973902847465
aF-0.061070747897694372
aF-0.052878334552166402
aF-0.043982314314847962
aF-0.039186275986839679
aF-0.033733281140608203
aF-0.026650047840505699
aF-0.017926737070664098
aF-0.017926737070664098
aF-0.017926737070664098
aF-0.005588250808964172
aF-0.005588250808964172
aF0.0072005954311818825
aF0.0072005954311818825
aF0.026177812418057771
aF0.032912068219149215
aF0.038660894521888964
aF0.046128789459681747
aF0.053280716369341265
aF0.060106630063502198
aF0.067619885361320076
aF0.073759686671649866
aF0.080565294961056161
aF0.087015927947400915
aF0.093115936464987767
aF0.10089526922473907
aF0.10662847260907854
aF0.11534984418056086
aF0.12335345742158567
aF0.12932968836617773
aF0.13429445017717093
aF0.14122204427263391
aF0.14746192147971882
aF0.15432589420306989
aF0.16535989371912899
aF0.17178878099375439
aF0.17434763929064326
aF0.17880422672547561
aF0.18512709965103993
aa(lp1025
F0.03999499994620128
aF0.040555515849686453
aF0.042227028296490034
aF0.043867316764381999
aF0.046583399138095179
aF0.046720278874404469
aF0.053734347732196985
aF0.057933870869048373
aF0.06382245215813763
aF0.071239223253538583
aF0.080069348689597933
aF0.089721565357026051
aF0.10378374916211272
aF0.11401930759295399
aF0.12881402803726491
aF0.14336480911948354
aF0.16354683314143259
aF0.17348195559927984
aF0.19040141381528933
aF0.20802163362105322
aF0.22629005642290037
aF0.24697560081494535
aF0.26551058092845659
aF0.28547155092485499
aF0.30393960702469341
aF0.3253638199702884
aF0.34620859627149081
aF0.3726716895829626
aF0.38804062494558217
aF0.41106368177873126
aF0.42898244953516745
aF0.4570419481386907
aF0.4788284422928421
aF0.50195478567110863
aF0.52643942699403379
aF0.54889773816134591
aF0.57268035267758199
aF0.59573467649916534
aF0.61878966529020618
aF0.63965515494499059
aF0.66064298149305833
aF0.67790102794481799
aF0.69605359730479366
aF0.71321973365094393
aF0.72954554978273711
aF0.74501661872953906
aF0.76189091226031802
aF0.77364918224233914
aF0.78799135712282864
aF0.79887029301502699
aF0.81026180823974292
aF0.82029038851146963
aF0.83255951049516586
aF0.84034771712238809
aF0.84916788119040099
aF0.85602986238899892
aF0.86454021143753246
aF0.86968522155040984
aF0.87583781636388647
aF0.8812612782613598
aF0.88574156358674561
aF0.88966443600430811
aF0.89334965675201683
aF0.89655843789239587
aF0.89948244094941376
aF0.90162008162469265
aF0.90368196635259701
aF0.90502512988488515
aF0.90608082037965743
aF0.90673168813061167
aF0.9068063041360569
aF0.90656939850978602
aF0.90602591859397041
aF0.90524967239085485
aF0.90432395990251702
aF0.90313531024266647
aF0.90162648564585091
aF0.90013495418376155
aF0.89814381341184302
aF0.89617301063992949
aF0.89404388399143364
aF0.8917398856308324
aF0.88906546023480271
aF0.88628498627923569
aF0.88385481358552875
aF0.88145247690019979
aF0.87827673031617326
aF0.87384498183265269
aF0.87226765224690428
aF0.86878029299568016
aF0.86673903035600008
aF0.86405752176382644
aF0.86087570347931786
aF0.85794306109220164
aF0.8551661283358678
aF0.85243098157506147
aF0.85009948412424829
aF0.8472686384539363
aF0.84426614626996421
aF0.84249498040692772
aF0.83984944177141241
aF0.8377277194351741
aF0.83459178693964253
aF0.83338462649068623
aF0.83093136360919628
aF0.82949018707548805
aF0.82707075297469412
aF0.82494448827097677
aF0.82292679478494246
aF0.82087539645595531
aF0.81925616743063245
aF0.81764801324277647
aF0.81585557489686999
aF0.8144157466453521
aF0.81335820684440696
aF0.81230923904225594
aF0.81130744751616057
aF0.81029965345517141
aF0.80961955196676316
aF0.80884829407510761
aF0.80858332819071554
aF0.80852520328011745
aF0.80860041314174103
aF0.80877361638967993
aF0.80901507854761734
aF0.8093322041913763
aF0.80972673834776776
aF0.81039003722731273
aF0.81101101960618482
aF0.81176861263246136
aF0.81255861060361312
aF0.81363847817744106
aF0.81463080232809326
aF0.81575583478886948
aF0.81673068959589534
aF0.81784466971574388
aF0.81893334793585948
aF0.82031694018626833
aF0.82156071791181251
aF0.82302219306838564
aF0.82433550241844511
aF0.82610359830117497
aF0.82775964838192762
aF0.82950553783543146
aF0.83179143360825203
aF0.83379427346495527
aF0.83558353982472
aF0.83600119635387593
aF0.83600119635387593
aF0.8398192956580105
aF0.8440198551848489
aF0.8440198551848489
aF0.8440198551848489
aF0.8488665213987705
aF0.85413427502951433
aF0.85675098070382605
aF0.8593979861705946
aF0.86173152419917387
aF0.86448093922954572
aF0.86718810056085527
aF0.86946243728874373
aF0.87193970202816218
aF0.87442808135276096
aF0.87699191330968018
aF0.87959080387905897
aF0.88233612898028224
aF0.88476795803851616
aF0.88723315859795171
aF0.88957924997478788
aF0.89288813193627981
aF0.89450353640366687
aF0.89707473462629739
aF0.89982378699666976
aF0.90216342292819818
aF0.90477458755064477
aF0.90638964359480112
aF0.91046602709733016
aF0.91206634581985047
aF0.91449377781145924
aF0.91669622219995761
aF0.91919633549114255
aF0.92140546825982717
aF0.92377568791789932
aF0.92589156612033774
aF0.92795776564430688
aF0.93038607749048352
aF0.93250230574148929
aF0.93462893242215062
aF0.93711433282633261
aF0.93949723053370759
aF0.94203151296549315
aF0.94494335562276721
aF0.94662949041502997
aF0.9494118748767979
aF0.95150254097770404
aF0.9537342893478733
aF0.95597802826076905
aF0.95678996080659606
aF0.96041005668445256
aF0.96187041093435843
aF0.96264316035627528
aF0.96264316035627528
aF0.96686930973534357
aF0.96686930973534357
aF0.97079054476707782
aF0.97079054476707782
aF0.97591662487360198
aF0.97778735667956629
aF0.97966173492585029
aF0.98142754047160452
aF0.98319247156560174
aF0.98504387459531206
aF0.98637465859814644
aF0.98889220824675395
aF0.9897822977729096
aF0.99291817198190113
aF0.99387510707598858
aF0.99473426904511475
aF0.99621378490369616
aF0.99751399597846113
aF0.9986442872326815
aF0.99976640454447208
aF1.0010055813114824
aF1.0022060607274874
aF1.0033113084247038
aF1.004465559157105
aF1.0055655124395855
aF1.006667648113069
aF1.0079116303659492
aF1.0088240352746727
aF1.0098489532938431
aF1.0106721318212779
aF1.0115097786046079
aF1.0123956660598559
aF1.0131229569795477
aF1.013811811337987
aF1.013811811337987
aF1.0143878622906577
aF1.014439519232089
aF1.014439519232089
aF1.0154288047712325
aF1.0161318759621514
aF1.0161318759621514
aF1.0165337711905149
aF1.0165337711905149
aF1.0169355374636375
aF1.0170508201033461
aF1.0170778121244164
aF1.0171111464407019
aF1.0170772401688504
aF1.0169558476423988
aF1.0166233913931468
aF1.01627267193412
aF1.0159005933054051
aF1.0153431726814666
aF1.0148680456222343
aF1.014309069631131
aF1.0138707659378545
aF1.0135611561306295
aF1.013357486685176
aF1.0131539055730341
aF1.0128813314289737
aF1.0125922578748829
aF1.0122136563110979
aF1.0118139915570397
aF1.0112934553222577
aF1.0107721733867783
aF1.0102154803325951
aF1.0102154803325951
aF1.0102154803325951
aF1.0091908304186845
aF1.0078041609936272
aF1.0078041609936272
aF1.0064333667780587
aF1.0064333667780587
aF1.0051289611997363
aF1.0051289611997363
aF1.0035960863967226
aF1.0027679448185665
aF1.001642632991959
aF1.0007669383900268
aF0.99925230118150976
aF0.99866899461909353
aF0.99758002603333618
aF0.99653725912225977
aF0.99495057321086289
aF0.99322669801730201
aF0.99247086653617278
aF0.99083024465028013
aF0.98988733991492683
aF0.98953045256209726
aF0.98953045256209726
aF0.98704667535092638
aF0.98424278792667175
aF0.98424278792667175
aF0.98096431282290519
aF0.98096431282290519
aF0.97707997743481401
aF0.97558516531731654
aF0.97390125377962622
aF0.97215121305786312
aF0.97036762227273854
aF0.9683366327494024
aF0.96663052828300811
aF0.96433482233036683
aF0.9624722385852672
aF0.96035482172420028
aF0.95809419310432764
aF0.95562361370678484
aF0.95371921617311861
aF0.95143256679295429
aF0.94923475067987118
aF0.94692892530926986
aF0.94636194213243863
aF0.94168559496719606
aF0.94168559496719606
aF0.94168559496719606
aF0.93702332505827335
aF0.93702332505827335
aF0.93255907485480183
aF0.93255907485480183
aF0.92529090000285152
aF0.92401026962175326
aF0.9217048153363715
aF0.91970131289084567
aF0.91765037582737863
aF0.91568256438445383
aF0.91333702445684906
aF0.91137304124765051
aF0.90798897626562558
aF0.9061737772572801
aF0.90349372575575249
aF0.90188217811258931
aF0.90032688179140852
aF0.89812596685736068
aF0.89508792112336066
aF0.89340118500859333
aF0.89091507862834263
aF0.8896339653103118
aF0.88690932407879064
aF0.88456877769705378
aF0.88219254397957858
aF0.88005219862958484
aF0.87754290963855941
aF0.8745988320226793
aF0.87391670584513492
aF0.87391670584513492
aF0.8690711870780411
aF0.8690711870780411
aF0.86397263660023238
aF0.86397263660023238
aF0.85841046293425549
aF0.85269394025507861
aF0.84909307977322723
aF0.84836657209666466
aF0.84739081541096639
aF0.84345577506220548
aF0.84345577506220548
aF0.83804944232855438
aF0.83804944232855438
aF0.83169172898807531
aF0.82924309902876592
aF0.82652494714142954
aF0.82422076908009212
aF0.82147158693094824
aF0.81883963938256454
aF0.81502620984087681
aF0.81321941547566123
aF0.8108007228796178
aF0.80820162888819569
aF0.80547986983843611
aF0.80296037544179766
aF0.80038347494631834
aF0.79758951616918639
aF0.7950624465284889
aF0.79263751714066522
aF0.78842117016206359
aF0.78639284825104228
aF0.7840862832464941
aF0.78083718508220457
aF0.77813525615952528
aF0.7755571210583837
aF0.77246625536058344
aF0.76949893594233199
aF0.76679766805717908
aF0.76414663639801816
aF0.761382166559879
aF0.75862165871645237
aF0.75553306214203331
aF0.75270200281683564
aF0.75016811052052745
aF0.74729408215370241
aF0.74425535714089697
aF0.74110357233979374
aF0.73826607167560554
aF0.73517287232697826
aF0.73145870253961898
aF0.72921354273223671
aF0.72633060660129645
aF0.72385623529110188
aF0.72092780045116089
aF0.71820112452949914
aF0.71544217922452402
aF0.71253854803168115
aF0.70971756435412636
aF0.70677502096259026
aF0.7038628225558724
aF0.70079368615695492
aF0.69933904884945042
aF0.69933904884945042
aF0.6922104071784636
aF0.68942411084347466
aF0.68680864208985659
aF0.68441171283860369
aF0.68157474929646544
aF0.67917995990994795
aF0.676115908165285
aF0.67440366864485402
aF0.6720444074462768
aF0.67023846483295502
aF0.66718684746014578
aF0.66628940665456038
aF0.66415461970194367
aF0.6621362628559182
aF0.66026524275940845
aF0.65827115017805626
aF0.65615293656360751
aF0.65395153397629369
aF0.65224825312499857
aF0.65007869919668382
aF0.6485969650712039
aF0.6485969650712039
aF0.6485969650712039
aF0.64510084517378552
aF0.64015324246687699
aF0.63833924147452348
aF0.63641908776421763
aF0.63442362204963243
aF0.6324338408857042
aF0.63041419415239219
aF0.62866221164958291
aF0.62691343615625983
aF0.62523780515424332
aF0.62360510851185502
aF0.62188497340873705
aF0.62020710911967403
aF0.61800773764430872
aF0.61800773764430872
aF0.61577580187958036
aF0.61370434370441618
aF0.61197111121190351
aF0.61102922172231777
aF0.60955574755888808
aF0.60822756949190038
aF0.60680403892529688
aF0.60526289872549588
aF0.60403873370016581
aF0.60267650860790456
aF0.60150311588793437
aF0.60026686449727273
aF0.59938209642510154
aF0.59872032490320459
aF0.59634815506014993
aF0.59592547753635461
aF0.59428684479102578
aF0.59225099306517837
aF0.59144921208838919
aF0.5903025467997316
aF0.58874717580937896
aF0.58704982350950796
aF0.58704982350950796
aF0.58704982350950796
aF0.58483453775889638
aF0.58483453775889638
aF0.5829911607506596
aF0.5829911607506596
aF0.58102850007313023
aF0.58031890060604086
aF0.57976672064751422
aF0.57892203731564551
aF0.57818570706790673
aF0.57739476887881014
aF0.57655401452101573
aF0.57602146317878988
aF0.57545291423096345
aF0.57517878364034514
aF0.57480634492073102
aF0.57419283380565334
aF0.57390809607776772
aF0.57359478461859892
aF0.57349711077698584
aF0.57350261960566884
aF0.57331471771200981
aF0.57327087409637556
aF0.57330648837808762
aF0.5733801304491476
aF0.57357853888277399
aF0.57386459193045636
aF0.57392211368853241
aF0.57406778797917202
aF0.57444113658510265
aa(lp1026
F-0.030832056762984637
aF-0.030793155885718067
aF-0.030755164228292407
aF-0.030766459776384626
aF-0.030764714157513865
aF-0.030767826727037893
aF-0.0307714178333203
aF-0.030773415204137854
aF-0.030778602126479704
aF-0.030777690826044198
aF-0.030803361202239036
aF-0.030799137595197739
aF-0.030796012542106101
aF-0.030817201317529044
aF-0.030831700981307764
aF-0.030847417792928437
aF-0.030863348905793071
aF-0.030876872770703633
aF-0.030869703041706432
aF-0.030895826987524428
aF-0.030909633813300808
aF-0.030940228956917695
aF-0.030960810198716965
aF-0.030966739893331596
aF-0.030986332852695087
aF-0.031005270424759073
aF-0.031028677114027348
aF-0.031045677652517222
aF-0.031078636351601553
aF-0.031082058929721226
aF-0.031124430238783311
aF-0.031120991015906822
aF-0.031151434276117791
aF-0.031202856171696939
aF-0.031214376424006134
aF-0.031235816951375873
aF-0.031241114145231608
aF-0.031257521714260016
aF-0.030350806909250509
aF-0.029608015911119182
aF-0.028907263326913679
aF-0.029102531291465332
aF-0.027638562511924352
aF-0.02688663146170809
aF-0.026800446991525
aF-0.026478672633410773
aF-0.025362304632773981
aF-0.024613794080082792
aF-0.024066164936178434
aF-0.023767456049817819
aF-0.024494209824759826
aF-0.021735836564521053
aF-0.020955103843234499
aF-0.01990633852239369
aF-0.018294402015974383
aF-0.018367718008546422
aF-0.016170177345553913
aF-0.016157864386701502
aF-0.014318535535081462
aF-0.012951122989812668
aF-0.012549528700401729
aF-0.012136329894600227
aF-0.011625053939872752
aF-0.010687196794866129
aF-0.010021776868185409
aF-0.0097593951635691553
aF-0.0094323912309237506
aF-0.009781160263696749
aF-0.0090536626761846626
aF-0.0091576830435901747
aF-0.0092405167161673483
aF-0.0095853783922784947
aF-0.0097425309040256904
aF-0.0087557142471509433
aF-0.0091515681760560019
aF-0.0077370244414252587
aF-0.0074592895090949711
aF-0.0066643432057874241
aF-0.00646122359735789
aF-0.0057270207735934178
aF-0.0057850584398570805
aF-0.0059288857834781722
aF-0.0047451892213841622
aF-0.0046037576824468403
aF-0.0054320985694077603
aF-0.0042553553544723791
aF-0.003783225267025818
aF-0.0042607576183554966
aF-0.003600046597406903
aF-0.0036083700161107014
aF-0.0034122370443534222
aF-0.0030185492745029791
aF-0.0029802041760693663
aF-0.0025395597267291875
aF-0.0033395610946957066
aF-0.0026989517384907063
aF-0.0028948183941389771
aF-0.0036418779921698623
aF-0.0036752801179786654
aF-0.0038981539318533221
aF-0.0032424719681311792
aF-0.0037060042584608531
aF-0.004197857602507838
aF-0.0040866427990442333
aF-0.0042768850873356624
aF-0.0046751069929716962
aF-0.0045759859057043582
aF-0.0045120154239341641
aF-0.0043612316122625403
aF-0.0037797800624398531
aF-0.0051619692506437087
aF-0.0048853271506279234
aF-0.0043917185649601431
aF-0.0037972515955326685
aF-0.0034782511901710624
aF-0.0035057082769800489
aF-0.0032212088114512284
aF-0.0028817806081422237
aF-0.0032581978823532326
aF-0.0029200713510418685
aF-0.0029212432459512334
aF-0.0032601653446233934
aF-0.0035062240043669262
aF-0.003580828145071698
aF-0.003114093299501474
aF-0.0032376252230066952
aF-0.0028240402068322678
aF-0.0023520349550618042
aF-0.0027472272548835471
aF-0.0028838583419262703
aF-0.0028212888805459451
aF-0.0026815324803372564
aF-0.0020299970116189887
aF-0.0014550518712270681
aF-0.0030761606789476339
aF-0.0030258750480952989
aF-0.0043105132177330679
aF-0.0030305420818610676
aF-0.0021408262548954799
aF-0.0027773303378771496
aF-0.0025102693760018441
aF-0.0042893093579992637
aF-0.0040036265542907692
aF-0.0029021358453528903
aF-0.0031752300114242563
aF-0.0029155291529521974
aF-0.0034161735293396956
aF-0.0039454533893036759
aF-0.00394743099447252
aF-0.0045914894563783629
aF-0.004249009540937424
aF-0.004640545715895463
aF-0.0050918459304878615
aF-0.004270660728510579
aF-0.0046408375192883398
aF-0.0047767560026800073
aF-0.0046400422120018697
aF-0.0045061767553333555
aF-0.0047898975583325178
aF-0.004734331118306935
aF-0.004422466112131599
aF-0.0041457017771829681
aF-0.0046951457197285905
aF-0.0044752284307828429
aF-0.004212471698989648
aF-0.0038428543280853975
aF-0.0042402364537253504
aF-0.0048686345401390907
aF-0.0044313320458777708
aF-0.0042308118803286417
aF-0.0040231248465998921
aF-0.0031822182085424621
aF-0.0036286896231388158
aF-0.0031539520305077684
aF-0.0035186056228411933
aF-0.0035496923069327146
aF-0.0038220772503192516
aF-0.0040117403530884532
aF-0.0027271711031468635
aF-0.0032581872193058995
aF-0.0022923658425561431
aF-0.0018549814248823846
aF-0.0019037311868072327
aF-0.0019900131848622719
aF-0.0023119850694264857
aF-0.002135813062202866
aF-0.0017486084251310847
aF-0.0010284383667130124
aF-0.0014771974600924331
aF-0.0012286406564181623
aF-0.0011466189358842747
aF-0.0012901725512780903
aF-0.0016086910389150955
aF-0.0021865332772526155
aF-0.0020328090652602469
aF-0.0018413072370118584
aF-0.0017001923385654718
aF-0.0019158286740812152
aF-0.0015841956785215211
aF-0.0026574826272627544
aF-0.0015054155243769641
aF-0.00096440670245781404
aF-0.0021481632116837832
aF-0.0014634643653872487
aF-0.0019787132155065245
aF-0.0025644483195024692
aF-0.0027645619888813058
aF-0.0017848404196724227
aF-0.0023797521161959944
aF-0.002276241494467879
aF-0.0025049706217001571
aF-0.002691660554783639
aF-0.0025914156863570985
aF-0.0022117649080608398
aF-0.001888433484961627
aF-0.002393533714762829
aF-0.0023974085621340296
aF-0.0024601449912311354
aF-0.0020312380862988577
aF-0.0022800242755279579
aF-0.0018238986419057419
aF-0.0024362886334545844
aF-0.0031215501505536961
aF-0.0033207361348145336
aF-0.0032299941221565877
aF-0.0031210169981870299
aF-0.0027916437884390249
aF-0.0022285662296176074
aF-0.0032434012136951301
aF-0.0027939693730549904
aF-0.0027711314663359352
aF-0.0025941938002989173
aF-0.0028597208438041755
aF-0.0028961231870285207
aF-0.0036530396019846018
aF-0.0027266184452058068
aF-0.0023804553571713434
aF-0.0033015910234390367
aF-0.0014059461975881793
aF-0.0021045741045939391
aF-0.0026621704669745399
aF-0.0026805912713543465
aF-0.0030455416084928283
aF-0.0040037693350953056
aF-0.005032384097219387
aF-0.0067774058373315958
aF-0.0063334308761828677
aF-0.0062126549603018222
aF-0.0070801500369220612
aF-0.0069884551119365704
aF-0.0071936558351163799
aF-0.0069084000734498698
aF-0.0077379726724149502
aF-0.0075263850439568044
aF-0.0072654082608453003
aF-0.0066101275918069458
aF-0.0073046539966670904
aF-0.0069605631808558454
aF-0.0077784662448490641
aF-0.0081202970147742966
aF-0.0074851736663851288
aF-0.0071681056132597808
aF-0.007015117411607737
aF-0.0075933240140748674
aF-0.0068223347173077247
aF-0.0060307751018629716
aF-0.005769043583059727
aF-0.0057689265496133858
aF-0.0054730581950326396
aF-0.0054458424571974407
aF-0.0059966517899503798
aF-0.0058552660240942939
aF-0.0062565289788149257
aF-0.0060057923621839671
aF-0.0057108899236470237
aF-0.004676194103651045
aF-0.0040277364845343923
aF-0.0041725531508885567
aF-0.0047880463492857225
aF-0.0050633199382022903
aF-0.0048477021980007987
aF-0.0048550768655662557
aF-0.0047727690632746447
aF-0.0052776149403857987
aF-0.0060659147842384567
aF-0.0065929210744515116
aF-0.0072829955270128305
aF-0.0072747605335796014
aF-0.0073234417659197582
aF-0.0070306932629441484
aF-0.0067817750859950074
aF-0.0074117042299612183
aF-0.0068140409470769988
aF-0.0061621110756445606
aF-0.0055164645999090283
aF-0.0050822606311581777
aF-0.0057468061879575646
aF-0.0052613077600469167
aF-0.0053631975985803668
aF-0.0057056957192240685
aF-0.0063461547524691006
aF-0.0067168303658026026
aF-0.0059197197239607155
aF-0.0058713349763512895
aF-0.0057634696701219755
aF-0.005615649665460366
aF-0.0059081396545567245
aF-0.0055454332386960948
aF-0.0062310266106341654
aF-0.0059506311179570491
aF-0.0059665934397407118
aF-0.0067569005372352872
aF-0.0066363706516658844
aF-0.0061880857387998905
aF-0.0054588076824574625
aF-0.0054588076824574625
aF-0.0057485934187203602
aF-0.0054437134887713283
aF-0.0050940602032926397
aF-0.0052766511049365961
aF-0.0061391449522831794
aF-0.005871433804594867
aF-0.0056661524583742455
aF-0.0050409415828158678
aF-0.0044147372233352142
aF-0.0047900156320761595
aF-0.0049491675952355162
aF-0.0049508617193898896
aF-0.0052808185359236497
aF-0.0056392607731482504
aF-0.0055038744018259481
aF-0.0061655627820886554
aF-0.0065622198205099415
aF-0.0067487513683293738
aF-0.0058653407833040095
aF-0.0059276530311767103
aF-0.0053462823644691605
aF-0.0051711738011612956
aF-0.0049473460346617943
aF-0.0054112120003507033
aF-0.0055672227858102573
aF-0.0058434440855678641
aF-0.0061337988644543061
aF-0.0062622839034830197
aF-0.0061661604328879715
aF-0.0055629019109713334
aF-0.005141614273507367
aF-0.0046236258004464029
aF-0.0045997847870550392
aF-0.004530866131173531
aF-0.0046460910206574425
aF-0.0052454323030878729
aF-0.0044518373459740811
aF-0.004190292040387681
aF-0.004190292040387681
aF-0.0044881655680157435
aF-0.0045403239940838653
aF-0.0039110928896064993
aF-0.0032311543137213184
aF-0.0031912045567012029
aF-0.0036239536696768678
aF-0.0045400623593127116
aF-0.003893997163913602
aF-0.0040543400074080629
aF-0.0042546445713415992
aF-0.0050619649509679818
aF-0.005446135300887619
aF-0.0056321248538133287
aF-0.0055422915408476423
aF-0.0056506317427947785
aF-0.0054923172189625755
aF-0.0058941419342256459
aF-0.0056710007639446808
aF-0.0068728567557216694
aF-0.0070198512844750838
aF-0.00698357455714981
aF-0.0071400253883676075
aF-0.0070629648456612942
aF-0.007668171324273703
aF-0.0071967491591403455
aF-0.0075999808765027646
aF-0.0077786592199983653
aF-0.0079653998675752614
aF-0.0073646375390319218
aF-0.0068352515687432587
aF-0.0070560380260838353
aF-0.0072515020866766927
aF-0.0068363095510981849
aF-0.007491454461338783
aF-0.0072367933231405092
aF-0.0072145606093762006
aF-0.0063813906623449114
aF-0.0063946846215519899
aF-0.0064807203292210616
aF-0.0066234600420141546
aF-0.0071549494934450598
aF-0.0063446920944641586
aF-0.0063760461349619876
aF-0.0059465963248758504
aF-0.0064402954164088011
aF-0.0070562908183279338
aF-0.0070821115174827427
aF-0.0068457876998058841
aF-0.0073538735828604174
aF-0.0079160585665977393
aF-0.0077459902437123094
aF-0.0080833201673655777
aF-0.0077788792428774879
aF-0.0079051401262770649
aF-0.0080532867842911283
aF-0.0080532867842911283
aF-0.0077583931882812427
aF-0.0072004999510584229
aF-0.0066282412484086877
aF-0.0065253932960611894
aF-0.0068672183443512667
aF-0.0073874476177981808
aF-0.0072656516904136895
aF-0.0065903915915645865
aF-0.0062623104310641897
aF-0.0055417511063998708
aF-0.0053565183697605011
aF-0.0054217132814537517
aF-0.005475628769662946
aF-0.0056700083203197055
aF-0.0059343884360508184
aF-0.0064775661478049988
aF-0.0065090694709654959
aF-0.006197719932102711
aF-0.0063432273558646146
aF-0.0066229284500934401
aF-0.0066229284500934401
aF-0.0088428037759857372
aF-0.0088323415060314672
aF-0.0087844004452208389
aF-0.008807349403676756
aF-0.0086318169192188109
aF-0.0082186597253093418
aF-0.0074688675263435492
aF-0.0073223073217132239
aF-0.0067385783010247323
aF-0.0069314879115954442
aF-0.0074252977947909318
aF-0.0070935709123998393
aF-0.0070335145492239504
aF-0.0072531291116551631
aF-0.0063622559539424223
aF-0.0063622559539424223
aF-0.0055090134704919615
aF-0.0050039871017991157
aF-0.0048459851873058077
aF-0.0048459851873058077
aF-0.0049275450158381348
aF-0.0048291641001003251
aF-0.0055604743772198883
aF-0.0056161651327729187
aF-0.0061754201191625011
aF-0.0059347442177276957
aF-0.0059074769851761074
aF-0.0054609283285051687
aF-0.0047909747861875083
aF-0.0046702384016038953
aF-0.0047280113122045008
aF-0.0042574359490740038
aF-0.00397778738985887
aF-0.0040456810928247528
aF-0.0036900546803191256
aF-0.0037415015430334922
aF-0.0046742237805633066
aF-0.0046281354892454239
aF-0.0049275008032028502
aF-0.0046378060929537735
aF-0.0046739309368731283
aF-0.0050541616809145901
aF-0.0057226218764569337
aF-0.0057212871750199918
aF-0.0053280563557589304
aF-0.0061659841024954845
aF-0.0061470798199451254
aF-0.0061210182919651784
aF-0.0058594376162705514
aF-0.0059326136888556329
aF-0.0062035866887306425
aF-0.0062221804425367094
aF-0.0053360187912993469
aF-0.0047579021745487371
aF-0.0046165205698818551
aF-0.0048365559325712461
aF-0.004903232747769503
aF-0.0051139865779410475
aF-0.0049875113932975031
aF-0.0046409316661940644
aF-0.0046775059185473694
aF-0.0049550952092555448
aF-0.0045662981370905445
aF-0.0040417752966088539
aF-0.0037967904837540836
aF-0.0031788858762136353
aF-0.0034103119741982694
aF-0.0034060675612109553
aF-0.0029513270834447712
aas.