(dp1
S'tiempo'
p2
(lp3
(lp4
F0.02
aF0.040000000000000001
aF0.059999999999999998
aF0.080000000000000002
aF0.10000000000000001
aF0.12000000000000001
aF0.14000000000000001
aF0.16
aF0.17999999999999999
aF0.19999999999999998
aF0.21999999999999997
aF0.23999999999999996
aF0.25999999999999995
aF0.27999999999999997
aF0.29999999999999999
aF0.32000000000000001
aF0.34000000000000002
aF0.36000000000000004
aF0.38000000000000006
aF0.40000000000000008
aF0.4200000000000001
aF0.44000000000000011
aF0.46000000000000013
aF0.48000000000000015
aF0.50000000000000011
aF0.52000000000000013
aF0.54000000000000015
aF0.56000000000000016
aF0.58000000000000018
aF0.6000000000000002
aF0.62000000000000022
aF0.64000000000000024
aF0.66000000000000025
aF0.68000000000000027
aF0.70000000000000029
aF0.72000000000000031
aF0.74000000000000032
aF0.76000000000000034
aF0.78000000000000036
aF0.80000000000000038
aF0.8200000000000004
aF0.84000000000000041
aF0.86000000000000043
aF0.88000000000000045
aF0.90000000000000047
aF0.92000000000000048
aF0.9400000000000005
aF0.96000000000000052
aF0.98000000000000054
aF1.0000000000000004
aF1.0200000000000005
aF1.0400000000000005
aF1.0600000000000005
aF1.0800000000000005
aF1.1000000000000005
aF1.1200000000000006
aF1.1400000000000006
aF1.1600000000000006
aF1.1800000000000006
aF1.2000000000000006
aF1.2200000000000006
aF1.2400000000000007
aF1.2600000000000007
aF1.2800000000000007
aF1.3000000000000007
aF1.3200000000000007
aF1.3400000000000007
aF1.3600000000000008
aF1.3800000000000008
aF1.4000000000000008
aF1.4200000000000008
aF1.4400000000000008
aF1.4600000000000009
aF1.4800000000000009
aF1.5000000000000009
aF1.5200000000000009
aF1.5400000000000009
aF1.5600000000000009
aF1.580000000000001
aF1.600000000000001
aF1.620000000000001
aF1.640000000000001
aF1.660000000000001
aF1.680000000000001
aF1.7000000000000011
aF1.7200000000000011
aF1.7400000000000011
aF1.7600000000000011
aF1.7800000000000011
aF1.8000000000000012
aF1.8200000000000012
aF1.8400000000000012
aF1.8600000000000012
aF1.8800000000000012
aF1.9000000000000012
aF1.9200000000000013
aF1.9400000000000013
aF1.9600000000000013
aF1.9800000000000013
aF2.0000000000000013
aF2.0200000000000014
aF2.0400000000000014
aF2.0600000000000014
aF2.0800000000000014
aF2.1000000000000014
aF2.1200000000000014
aF2.1400000000000015
aF2.1600000000000015
aF2.1800000000000015
aF2.2000000000000015
aF2.2200000000000015
aF2.2400000000000015
aF2.2600000000000016
aF2.2800000000000016
aF2.3000000000000016
aF2.3200000000000016
aF2.3400000000000016
aF2.3600000000000017
aF2.3800000000000017
aF2.4000000000000017
aF2.4200000000000017
aF2.4400000000000017
aF2.4600000000000017
aF2.4800000000000018
aF2.5000000000000018
aF2.5200000000000018
aF2.5400000000000018
aF2.5600000000000018
aF2.5800000000000018
aF2.6000000000000019
aF2.6200000000000019
aF2.6400000000000019
aF2.6600000000000019
aF2.6800000000000019
aF2.700000000000002
aF2.720000000000002
aF2.740000000000002
aF2.760000000000002
aF2.780000000000002
aF2.800000000000002
aF2.8200000000000021
aF2.8400000000000021
aF2.8600000000000021
aF2.8800000000000021
aF2.9000000000000021
aF2.9200000000000021
aF2.9400000000000022
aF2.9600000000000022
aF2.9800000000000022
aF3.0000000000000022
aF3.0200000000000022
aF3.0400000000000023
aF3.0600000000000023
aF3.0800000000000023
aF3.1000000000000023
aF3.1200000000000023
aF3.1400000000000023
aF3.1600000000000024
aF3.1800000000000024
aF3.2000000000000024
aF3.2200000000000024
aF3.2400000000000024
aF3.2600000000000025
aF3.2800000000000025
aF3.3000000000000025
aF3.3200000000000025
aF3.3400000000000025
aF3.3600000000000025
aF3.3800000000000026
aF3.4000000000000026
aF3.4200000000000026
aF3.4400000000000026
aF3.4600000000000026
aF3.4800000000000026
aF3.5000000000000027
aF3.5200000000000027
aF3.5400000000000027
aF3.5600000000000027
aF3.5800000000000027
aF3.6000000000000028
aF3.6200000000000028
aF3.6400000000000028
aF3.6600000000000028
aF3.6800000000000028
aF3.7000000000000028
aF3.7200000000000029
aF3.7400000000000029
aF3.7600000000000029
aF3.7800000000000029
aF3.8000000000000029
aF3.8200000000000029
aF3.840000000000003
aF3.860000000000003
aF3.880000000000003
aF3.900000000000003
aF3.920000000000003
aF3.9400000000000031
aF3.9600000000000031
aF3.9800000000000031
aF4.0000000000000027
aF4.0200000000000022
aF4.0400000000000018
aF4.0600000000000014
aF4.080000000000001
aF4.1000000000000005
aF4.1200000000000001
aF4.1399999999999997
aF4.1599999999999993
aF4.1799999999999988
aF4.1999999999999984
aF4.219999999999998
aF4.2399999999999975
aF4.2599999999999971
aF4.2799999999999967
aF4.2999999999999963
aF4.3199999999999958
aF4.3399999999999954
aF4.359999999999995
aF4.3799999999999946
aF4.3999999999999941
aF4.4199999999999937
aF4.4399999999999933
aF4.4599999999999929
aF4.4799999999999924
aF4.499999999999992
aF4.5199999999999916
aF4.5399999999999912
aF4.5599999999999907
aF4.5799999999999903
aF4.5999999999999899
aF4.6199999999999894
aF4.639999999999989
aF4.6599999999999886
aF4.6799999999999882
aF4.6999999999999877
aF4.7199999999999873
aF4.7399999999999869
aF4.7599999999999865
aF4.779999999999986
aF4.7999999999999856
aF4.8199999999999852
aF4.8399999999999848
aF4.8599999999999843
aF4.8799999999999839
aF4.8999999999999835
aF4.9199999999999831
aF4.9399999999999826
aF4.9599999999999822
aF4.9799999999999818
aF4.9999999999999813
aF5.0199999999999809
aF5.0399999999999805
aF5.0599999999999801
aF5.0799999999999796
aF5.0999999999999792
aF5.1199999999999788
aF5.1399999999999784
aF5.1599999999999779
aF5.1799999999999775
aF5.1999999999999771
aF5.2199999999999767
aF5.2399999999999762
aF5.2599999999999758
aF5.2799999999999754
aF5.299999999999975
aF5.3199999999999745
aF5.3399999999999741
aF5.3599999999999737
aF5.3799999999999732
aF5.3999999999999728
aF5.4199999999999724
aF5.439999999999972
aF5.4599999999999715
aF5.4799999999999711
aF5.4999999999999707
aF5.5199999999999703
aF5.5399999999999698
aF5.5599999999999694
aF5.579999999999969
aF5.5999999999999686
aF5.6199999999999681
aF5.6399999999999677
aF5.6599999999999673
aF5.6799999999999669
aF5.6999999999999664
aF5.719999999999966
aF5.7399999999999656
aF5.7599999999999651
aF5.7799999999999647
aF5.7999999999999643
aF5.8199999999999639
aF5.8399999999999634
aF5.859999999999963
aF5.8799999999999626
aF5.8999999999999622
aF5.9199999999999617
aF5.9399999999999613
aF5.9599999999999609
aF5.9799999999999605
aF5.99999999999996
aF6.0199999999999596
aF6.0399999999999592
aF6.0599999999999588
aF6.0799999999999583
aF6.0999999999999579
aF6.1199999999999575
aF6.139999999999957
aF6.1599999999999566
aF6.1799999999999562
aF6.1999999999999558
aF6.2199999999999553
aF6.2399999999999549
aF6.2599999999999545
aF6.2799999999999541
aF6.2999999999999536
aF6.3199999999999532
aF6.3399999999999528
aF6.3599999999999524
aF6.3799999999999519
aF6.3999999999999515
aF6.4199999999999511
aF6.4399999999999507
aF6.4599999999999502
aF6.4799999999999498
aF6.4999999999999494
aF6.5199999999999489
aF6.5399999999999485
aF6.5599999999999481
aF6.5799999999999477
aF6.5999999999999472
aF6.6199999999999468
aF6.6399999999999464
aF6.659999999999946
aF6.6799999999999455
aF6.6999999999999451
aF6.7199999999999447
aF6.7399999999999443
aF6.7599999999999438
aF6.7799999999999434
aF6.799999999999943
aF6.8199999999999426
aF6.8399999999999421
aF6.8599999999999417
aF6.8799999999999413
aF6.8999999999999408
aF6.9199999999999404
aF6.93999999999994
aF6.9599999999999396
aF6.9799999999999391
aF6.9999999999999387
aF7.0199999999999383
aF7.0399999999999379
aF7.0599999999999374
aF7.079999999999937
aF7.0999999999999366
aF7.1199999999999362
aF7.1399999999999357
aF7.1599999999999353
aF7.1799999999999349
aF7.1999999999999345
aF7.219999999999934
aF7.2399999999999336
aF7.2599999999999332
aF7.2799999999999327
aF7.2999999999999323
aF7.3199999999999319
aF7.3399999999999315
aF7.359999999999931
aF7.3799999999999306
aF7.3999999999999302
aF7.4199999999999298
aF7.4399999999999293
aF7.4599999999999289
aF7.4799999999999285
aF7.4999999999999281
aF7.5199999999999276
aF7.5399999999999272
aF7.5599999999999268
aF7.5799999999999264
aF7.5999999999999259
aF7.6199999999999255
aF7.6399999999999251
aF7.6599999999999246
aF7.6799999999999242
aF7.6999999999999238
aF7.7199999999999234
aF7.7399999999999229
aF7.7599999999999225
aF7.7799999999999221
aF7.7999999999999217
aF7.8199999999999212
aF7.8399999999999208
aF7.8599999999999204
aF7.87999999999992
aF7.8999999999999195
aF7.9199999999999191
aF7.9399999999999187
aF7.9599999999999183
aF7.9799999999999178
aF7.9999999999999174
aF8.0199999999999179
aF8.0399999999999174
aF8.059999999999917
aF8.0799999999999166
aF8.0999999999999162
aF8.1199999999999157
aF8.1399999999999153
aF8.1599999999999149
aF8.1799999999999145
aF8.199999999999914
aF8.2199999999999136
aF8.2399999999999132
aF8.2599999999999127
aF8.2799999999999123
aF8.2999999999999119
aF8.3199999999999115
aF8.339999999999911
aF8.3599999999999106
aF8.3799999999999102
aF8.3999999999999098
aF8.4199999999999093
aF8.4399999999999089
aF8.4599999999999085
aF8.4799999999999081
aF8.4999999999999076
aF8.5199999999999072
aF8.5399999999999068
aF8.5599999999999064
aF8.5799999999999059
aF8.5999999999999055
aF8.6199999999999051
aF8.6399999999999046
aF8.6599999999999042
aF8.6799999999999038
aF8.6999999999999034
aF8.7199999999999029
aF8.7399999999999025
aF8.7599999999999021
aF8.7799999999999017
aF8.7999999999999012
aF8.8199999999999008
aF8.8399999999999004
aF8.8599999999999
aF8.8799999999998995
aF8.8999999999998991
aF8.9199999999998987
aF8.9399999999998983
aF8.9599999999998978
aF8.9799999999998974
aF8.999999999999897
aF9.0199999999998965
aF9.0399999999998961
aF9.0599999999998957
aF9.0799999999998953
aF9.0999999999998948
aF9.1199999999998944
aF9.139999999999894
aF9.1599999999998936
aF9.1799999999998931
aF9.1999999999998927
aF9.2199999999998923
aF9.2399999999998919
aF9.2599999999998914
aF9.279999999999891
aF9.2999999999998906
aF9.3199999999998902
aF9.3399999999998897
aF9.3599999999998893
aF9.3799999999998889
aF9.3999999999998884
aF9.419999999999888
aF9.4399999999998876
aF9.4599999999998872
aF9.4799999999998867
aF9.4999999999998863
aF9.5199999999998859
aF9.5399999999998855
aF9.559999999999885
aF9.5799999999998846
aF9.5999999999998842
aF9.6199999999998838
aF9.6399999999998833
aF9.6599999999998829
aF9.6799999999998825
aF9.699999999999882
aF9.7199999999998816
aF9.7399999999998812
aF9.7599999999998808
aF9.7799999999998803
aF9.7999999999998799
aF9.8199999999998795
aF9.8399999999998791
aF9.8599999999998786
aF9.8799999999998782
aF9.8999999999998778
aF9.9199999999998774
aF9.9399999999998769
aF9.9599999999998765
aF9.9799999999998761
aF9.9999999999998757
aF10.019999999999875
aasS'control'
p5
(lp6
(lp7
F-0.7265291964768128
aF-0.74531207420414425
aF-0.76219084015188843
aF-0.78106643820657984
aF-0.80175207294900297
aF-0.82359031846045916
aF-0.84716827624289859
aF-0.8706001412863702
aF-0.89413545502265324
aF-0.91756483270145328
aF-0.94221009402810685
aF-0.96454832389252909
aF-0.98474738561924335
aI-1
aI-1
aI-1
aI-1
aI-1
aI-1
aI-1
aI-1
aI-1
aI-1
aI-1
aI-1
aI-1
aI-1
aI-1
aI-1
aI-1
aI-1
aI-1
aI-1
aI-1
aI-1
aI-1
aI-1
aI-1
aI-1
aI-1
aI-1
aI-1
aI-1
aI-1
aI-1
aI-1
aI-1
aI-1
aI-1
aI-1
aI-1
aI-1
aI-1
aI-1
aI-1
aI-1
aI-1
aI-1
aI-1
aI-1
aF-0.9319436782582442
aF-0.85006333985882032
aF-0.73330458711433033
aF-0.63578100116541281
aF-0.54145518130054981
aF-0.45120173187689999
aF-0.36500523136434226
aF-0.28956270686752494
aF-0.22499313283129233
aF-0.17288278010722061
aF-0.12975914259333837
aF-0.095338036381124411
aF-0.067495622466193964
aF-0.047806839823896871
aF-0.03486211859177385
aF-0.02584798770081256
aF-0.022487165600418475
aF-0.023979812779761803
aF-0.029067615046044749
aF-0.038498268462475019
aF-0.049614920085617319
aF-0.065208446302130796
aF-0.082939503041503604
aF-0.098235927240617582
aF-0.113772763799612
aF-0.13191827827394978
aF-0.14550806043583114
aF-0.15974937698185046
aF-0.17180094007028407
aF-0.18618401015975702
aF-0.19330498232592377
aF-0.19724715442887653
aF-0.20483942476679048
aF-0.20685417372619433
aF-0.20672605851226655
aF-0.20550060369933149
aF-0.19777813573026745
aF-0.191749377594434
aF-0.18327051721321566
aF-0.1714027316602893
aF-0.15862745106332021
aF-0.14645268042903511
aF-0.13074193468041545
aF-0.11626180665460327
aF-0.10196596914136588
aF-0.090404682953414708
aF-0.07731749465270514
aF-0.069287370433251505
aF-0.058981181935508144
aF-0.049989817816423095
aF-0.039931769314753202
aF-0.033100874482198568
aF-0.025339614133704846
aF-0.019599870423320852
aF-0.015622311128755383
aF-0.011200262549769949
aF-0.0081272265805494119
aF-0.0053850923617563204
aF-0.0027642986699340298
aF0.00062242615301086172
aF0.0061829319696396412
aF0.0068323079013348853
aF0.010129532104049441
aF0.014435803019052141
aF0.018972748317752631
aF0.023982831172408479
aF0.028640915174019604
aF0.033706808345480871
aF0.038311928630168045
aF0.032345579605442709
aF0.044943185972355484
aF0.049347872087294103
aF0.054258789825838233
aF0.057801587655290691
aF0.061889010236918778
aF0.066781829556355601
aF0.068911741969736456
aF0.072520304183968792
aF0.078125917781150842
aF0.090453605719064634
aF0.088722890295597712
aF0.093181861793858317
aF0.099175475618831554
aF0.10306154653374031
aF0.10189830192395839
aF0.11133599019493418
aF0.11536077739248135
aF0.12026899220096583
aF0.12513427479156161
aF0.12803766753375051
aF0.13241891105546869
aF0.13463249124192458
aF0.13887085107970859
aF0.14177071696011975
aF0.14600192008854543
aF0.14892998009703737
aF0.15179364146114391
aF0.15583243308558178
aF0.15942660665307931
aF0.14895471263954629
aF0.16610644289202273
aF0.16840244530548096
aF0.17209248963780327
aF0.17611627197371851
aF0.18014864184080967
aF0.18392826381113547
aF0.18550244607977798
aF0.18677038191487594
aF0.18937740913192852
aF0.19250161101584173
aF0.19457300026650851
aF0.19551066122763666
aF0.19785585109352666
aF0.19889511429011922
aF0.20079387375298924
aF0.20337713292997389
aF0.20579604004772933
aF0.2072799049239358
aF0.21047608163297082
aF0.21364916749657586
aF0.21681148258559771
aF0.22029570772160662
aF0.22165091452761676
aF0.22776725693126021
aF0.231120799700995
aF0.23511745894239605
aF0.24234574169161402
aF0.24906161569367227
aF0.25324418450991748
aF0.25526997563241732
aF0.26103271592399407
aF0.26632479839383094
aF0.28702921578083196
aF0.27797424885678246
aF0.28297636976102236
aF0.2877844615480869
aF0.29104272642043733
aF0.29521250524709108
aF0.30007424878790367
aF0.29776997070175765
aF0.29543220283830901
aF0.29579505951659257
aF0.28377535927486652
aF0.29739837900898569
aF0.28425121736929038
aF0.29727026788475197
aF0.29830438327820413
aF0.29814107599911605
aF0.29708215483239614
aF0.29241998735871066
aF0.28758817712449602
aF0.29589143091714987
aF0.29058650840019934
aF0.28928195964813014
aF0.29041093764573628
aF0.29132305111758117
aF0.29241946618641917
aF0.28836036575882235
aF0.29469742889917255
aF0.29062040330116623
aF0.31132521395227558
aF0.33095521691798774
aF0.31286047157304508
aF0.33187793044577418
aF0.30351586378773737
aF0.30525976982441944
aF0.30708148649775541
aF0.30920103808507288
aF0.31056368490746206
aF0.31176290382424449
aF0.31307738539981461
aF0.31439119825997508
aF0.31313927116583107
aF0.31378618232935962
aF0.31494964212904453
aF0.31444500102585882
aF0.30972657090479733
aF0.3066660457758405
aF0.31102232184873091
aF0.3064795523980452
aF0.30232200652051444
aF0.30343136957561206
aF0.3020416409394478
aF0.29575235441673786
aF0.29524886038240311
aF0.29262249353809044
aF0.29010339532708368
aF0.28544472649302549
aF0.30399720591458396
aF0.29478781406523119
aF0.3141165845864064
aF0.29539214693350913
aF0.27635259346168989
aF0.29484326951931938
aF0.31459625888814763
aF0.28787281377491514
aF0.30528277596119596
aF0.28279892050900568
aF0.27814737142654239
aF0.26947730539779891
aF0.27420252346699081
aF0.26372758608608377
aF0.26859878372193424
aF0.26486986491083564
aF0.26413115058329317
aF0.25826645792719116
aF0.26030448478221208
aF0.26197870312725857
aF0.26304974551735161
aF0.26264890673998958
aF0.25958440159763851
aF0.26362839858738246
aF0.26126157577412434
aF0.26507937452394659
aF0.26580825634451727
aF0.26895551860634559
aF0.27068015387049565
aF0.27038562559683882
aF0.26627467046827347
aF0.26760783806116711
aF0.26540529878457514
aF0.25981760896529243
aF0.25717064667919526
aF0.2476647350022442
aF0.24804133808314779
aF0.24453974729725889
aF0.24086542900044725
aF0.23045774231081301
aF0.22602273995855746
aF0.21661973498588846
aF0.21302496726898285
aF0.21107803100724218
aF0.20583576803518649
aF0.19915348430400656
aF0.2005236783097499
aF0.20640798669677335
aF0.20936427578075179
aF0.21217448408434939
aF0.21654154466368891
aF0.22677120382748422
aF0.22402158961986501
aF0.2272382554365335
aF0.23107402745119821
aF0.23434325263536607
aF0.23613541144609182
aF0.23674918426938496
aF0.23602254334410327
aF0.23341984348517741
aF0.23248028813719498
aF0.23020339940690168
aF0.2267629312806167
aF0.22222261973252291
aF0.21728448144846352
aF0.21035624483236701
aF0.20653094322450311
aF0.20492756273739429
aF0.19432117876679514
aF0.18734746914583997
aF0.17740208186323883
aF0.17094697441262491
aF0.1627421726887863
aF0.15485365704497894
aF0.14808211005945091
aF0.14106185188484266
aF0.13570894438482134
aF0.13098363283053133
aF0.12552976734743634
aF0.11954270322484255
aF0.11496345075651984
aF0.11127795280785722
aF0.11000974606892502
aF0.10602148332632147
aF0.10700349577135483
aF0.10722286697808192
aF0.10637529039815709
aF0.10258494922425351
aF0.10193089888219159
aF0.10314710743582645
aF0.1044269534071486
aF0.1093255506093434
aF0.10122332793678319
aF0.10270280835384074
aF0.093446886763991655
aF0.095745324291606884
aF0.08500499165306169
aF0.083754331118179134
aF0.084354857436077887
aF0.069330082576958593
aF0.068644430430692169
aF0.046920979256013733
aF0.039996239446942861
aF0.037423815786871734
aF0.031442426345022083
aF0.028912865165048499
aF0.022389503394379506
aF0.016307123429556147
aF0.012699917255620101
aF0.0090349725315574149
aF0.0076924231184680005
aF0.0045439859910353332
aF0.0029379207911564139
aF0.0019020277258619852
aF-0.0016805046442718878
aF0.004525928684620267
aF-0.0095383721807787928
aF-0.0036276912745024431
aF-0.014639381812097016
aF-0.017135732087332049
aF-0.017672270060629259
aF-0.027107105426070532
aF-0.033683125052869793
aF-0.037505779976608734
aF-0.043850497832092494
aF-0.045156000402002787
aF-0.056139822921193121
aF-0.063265596201074997
aF-0.070476701018147403
aF-0.076087027609392469
aF-0.080324977950632773
aF-0.079774105648563548
aF-0.089516792253669097
aF-0.092216266313063538
aF-0.095463903414471182
aF-0.099934621994093684
aF-0.1022854797931952
aF-0.10746899599834951
aF-0.11004498042377762
aF-0.11394651136160505
aF-0.11640651944667885
aF-0.11840875809167116
aF-0.12136533986846462
aF-0.13138987361290183
aF-0.12823615663904966
aF-0.13203730060192348
aF-0.13424116552726584
aF-0.13733331749342839
aF-0.14263896163681022
aF-0.14695827835548694
aF-0.15092367773611176
aF-0.15467027014989893
aF-0.15797606606654885
aF-0.15762006349958341
aF-0.15830497246121042
aF-0.15667543776155293
aF-0.15585504599831826
aF-0.15514318434346802
aF-0.16029359994058737
aF-0.15509882871421338
aF-0.16914677588666202
aF-0.17501981957608723
aF-0.1806336148709371
aF-0.18835062987519827
aF-0.19572234104372885
aF-0.20266430295069515
aF-0.21136076061983641
aF-0.21710966726405376
aF-0.22188451878471538
aF-0.22601253532980148
aF-0.23012022074987926
aF-0.23265253387583376
aF-0.2345047656414484
aF-0.23674149956461832
aF-0.23806844873244487
aF-0.23849422383176577
aF-0.24188852638707203
aF-0.23943155252122039
aF-0.24757238552417762
aF-0.23881328188521697
aF-0.23856706861041505
aF-0.23779574731007608
aF-0.23851319581345659
aF-0.23839386432977153
aF-0.23983441854839255
aF-0.24300589850659507
aF-0.24466004272205447
aF-0.25284676978556475
aF-0.25107385294739032
aF-0.25348851335011652
aF-0.25577439996742041
aF-0.25847246610326258
aF-0.26145610289978105
aF-0.26027136718751748
aF-0.26545197171131091
aF-0.26534503735448467
aF-0.2679686903216269
aF-0.26989724221409805
aF-0.26950249815183169
aF-0.27494985906548847
aF-0.27498920310827046
aF-0.27521636540183503
aF-0.27645923546010676
aF-0.27857051934775534
aF-0.28040680803378365
aF-0.28283178334987991
aF-0.28437184013608219
aF-0.28427406449889869
aF-0.28847861007817216
aF-0.2911241916105024
aF-0.29624098703547347
aF-0.29834618150744968
aF-0.30030397022605759
aF-0.29980976640356743
aF-0.30844457882593018
aF-0.30385582032389663
aF-0.30831323096816948
aF-0.31173326149644248
aF-0.31367962463111265
aF-0.31668287417977103
aF-0.31492598532597377
aF-0.32027216670400044
aF-0.3206295514648736
aF-0.32083226414017091
aF-0.32142306630058881
aF-0.3219779737483226
aF-0.31597106456814239
aF-0.31597400808388848
aF-0.31391333372122843
aF-0.3115643063308523
aF-0.31341133788546421
aF-0.31107818313408403
aF-0.33380098311073353
aF-0.3064816175418752
aF-0.30259550663830209
aF-0.30153370465119272
aF-0.30282036141793173
aF-0.30071618830092189
aF-0.30048180650733208
aF-0.29960170167676609
aF-0.29877160207628833
aF-0.2986921103981337
aF-0.29634809903798265
aF-0.29847861200322012
aF-0.29551912963189941
aF-0.29737096888223902
aF-0.29756850809988639
aF-0.29736343246993452
aF-0.29766379935291865
aF-0.29944098153213594
aF-0.30003554276631655
aF-0.29847422699043064
aF-0.29900314213426415
aa(lp8
F-0.51361152654457354
aF-0.58072016505953306
aF-0.73784864436164399
aF-0.77322362819011448
aF-0.81215258744387009
aF-0.85232950106783301
aF-0.89877603388167537
aF-0.9434587609732179
aF-0.99357052515515865
aI-1
aI-1
aI-1
aI-1
aI-1
aI-1
aI-1
aI-1
aI-1
aI-1
aI-1
aI-1
aI-1
aI-1
aI-1
aI-1
aI-1
aI-1
aI-1
aI-1
aI-1
aI-1
aI-1
aI-1
aI-1
aI-1
aI-1
aI-1
aI-1
aI-1
aI-1
aI-1
aI-1
aI-1
aI-1
aI-1
aI-1
aI-1
aI-1
aI-1
aI-1
aI-1
aI-1
aI-1
aI-1
aI-1
aI-1
aI-1
aI-1
aI-1
aI-1
aI-1
aI-1
aI-1
aI-1
aF-0.9059864326922199
aF-0.65141508676169391
aF-0.38119122832860497
aF-0.12121404000161601
aF0.11064915696109119
aF0.29654082813829136
aF0.44574595178675885
aF0.55507857716609554
aF0.62899807877568703
aF0.67215479927755084
aF0.68654654882120925
aF0.67399704154494533
aF0.63782108271753624
aF0.57342599519154125
aF0.51839031699099647
aF0.44393911525116697
aF0.35547498823088564
aF0.26019413613516884
aF0.15399930216280946
aF0.038688737560956067
aF-0.082734725183381888
aF-0.20225375828481509
aF-0.33113510784300898
aF-0.44681650108223936
aF-0.54637296438948857
aF-0.63843896856050297
aF-0.69916276689781109
aF-0.7383632807580699
aF-0.78076385068174603
aF-0.7965466598852009
aF-0.79465197270905596
aF-0.74696996025730444
aF-0.73710780457622871
aF-0.68145414262954118
aF-0.55949801687681255
aF-0.52527670638851387
aF-0.42048459539119065
aF-0.30569026158829965
aF-0.18556833300531381
aF-0.090315654181921043
aF-0.011756904521540105
aF0.032973536204055916
aF0.067182087007901153
aF0.057633133558287038
aF0.041995506339680209
aF-0.0015527065793052399
aF-0.049936007795806946
aF-0.12292164115115747
aF-0.2039404032476542
aF-0.29131122178839275
aF-0.37414573073238433
aF-0.44392990358476803
aF-0.48778109157252336
aF-0.50462939639610516
aF-0.50907122256027126
aF-0.49193777737604527
aF-0.44837787044480326
aF-0.4060401420260924
aF-0.34587469656442538
aF-0.27681813940216482
aF-0.2139349947544151
aF-0.15436602665582297
aF-0.10341399629911302
aF-0.071187299756334949
aF-0.038537917301526455
aF-0.05527699893578112
aF-0.071565264940090856
aF-0.097522239330767743
aF-0.14470336890116201
aF-0.20121706148586674
aF-0.25919110778300353
aF-0.31672188624907349
aF-0.39231535366199427
aF-0.47341810202011414
aF-0.44221921227491856
aF-0.48009728032895127
aF-0.39343614934699789
aF-0.34881646074105921
aF-0.29824787924097318
aF-0.24084462827979566
aF-0.15098378076891344
aF-0.12828782025873192
aF-0.090169255639159493
aF-0.066901465546110261
aF-0.060180544363046151
aF-0.075827484934121045
aF-0.10174235991400427
aF-0.14516496652332936
aF-0.18830103804475087
aF-0.23311722173400024
aF-0.2730923441796626
aF-0.30756974492616868
aF-0.33143186377415884
aF-0.33551669665120004
aF-0.32873326578646345
aF-0.28502259320919981
aF-0.2744266540043388
aF-0.23369955518653948
aF-0.19118460489551531
aF-0.15153741095318518
aF-0.11925817503051363
aF-0.092657097385136653
aF-0.074889240757913519
aF-0.073287847004638904
aF-0.078974756452934017
aF-0.09149319873612409
aF-0.11211682026658201
aF-0.14500816499805397
aF-0.17410790173341609
aF-0.20908481356441555
aF-0.23497763397319638
aF-0.25029904601874808
aF-0.26048720818381477
aF-0.25382624693524924
aF-0.24212095688352417
aF-0.21928499018990338
aF-0.18646521178020126
aF-0.14980172207517228
aF-0.10392366492791522
aF-0.071826310430940329
aF-0.046016960294911133
aF-0.022908965912101311
aF-0.0086927736211242328
aF-0.0079740613399526244
aF-0.012679540814773004
aF-0.0214700904726421
aF-0.038261794343757781
aF-0.095911693795312863
aF-0.12032156334702747
aF-0.12210372926879308
aF-0.13964202585817234
aF-0.15320993817752016
aF-0.16002695593698127
aF-0.15739196584936715
aF-0.14018908336498143
aF-0.13372274699858602
aF-0.11133926236547302
aF-0.087594470139041369
aF-0.057147713314749327
aF-0.038042783309156503
aF-0.013232986763749397
aF0.0036511927085876297
aF0.01982411987935756
aF0.025396981318040239
aF0.021567512939559209
aF0.0095780551762652023
aF0.0022468754158673932
aF0.0041597932992764371
aF-0.031310649956618392
aF-0.050938302141537023
aF-0.070974274683852354
aF-0.081053962460810813
aF-0.090484684668797458
aF-0.095609112601471424
aF-0.097571559813452405
aF-0.09433266347333244
aF-0.077544722198038915
aF-0.060099103440496418
aF-0.016694867670660994
aF0.012122332797939334
aF0.058057103589197481
aF0.084785743636599728
aF0.10093052437068792
aF0.10151810568536745
aF0.096921814475900439
aF0.086814738571605016
aF0.069697588788377035
aF0.046277106560001384
aF0.022916870612112932
aF-0.0088707519885512006
aF-0.039164413647999066
aF-0.052272799872084684
aF-0.05774292398187781
aF-0.052300224942902318
aF-0.037232421645764978
aF-0.010386627636215324
aF0.018774247017555017
aF0.050400657686295945
aF0.080997729175100161
aF0.11136437970624405
aF0.13435781740394337
aF0.15063975021924872
aF0.15648361249874707
aF0.12765980334038607
aF0.14718402923021412
aF0.13116573017379024
aF0.11668649144911018
aF0.083954810194495855
aF-0.022357462809062555
aF0.018751386938794259
aF0.036404639560872566
aF-0.016617372749624645
aF0.0068339060360009694
aF-0.0071036371578873103
aF-0.00037909366693349904
aF0.017242349734323353
aF0.05474645526832124
aF0.086454046792610623
aF0.12365378188057322
aF0.15344009112544615
aF0.17424614224241383
aF0.15495516714549076
aF0.17076012095999338
aF0.18604506314255637
aF0.17544376583296845
aF0.16328027241328366
aF0.14357749348690918
aF0.12045940682299354
aF0.10234638297521106
aF0.098374661547322814
aF0.084788879917919988
aF0.084055523773535298
aF0.083073742497876385
aF0.088463268722770175
aF0.085545291400369775
aF0.10937681131928244
aF0.12394101655892636
aF0.13864209384466172
aF0.16113280948392503
aF0.16580617264579545
aF0.19515721530571242
aF0.206333871416084
aF0.21717011218627594
aF0.20848430049152855
aF0.20519942213894196
aF0.19436253518072294
aF0.18977301857705942
aF0.18690847546936717
aF0.17207155736035992
aF0.14591484189933518
aF0.14423283307683774
aF0.14841924910805818
aF0.14621166410473174
aF0.14855412428230361
aF0.15438944282610953
aF0.1652920098140106
aF0.18294614581950849
aF0.19738308978916577
aF0.20884842589967992
aF0.19779926155365302
aF0.2210305945413647
aF0.22497661618806938
aF0.22801591896708234
aF0.23261429467873973
aF0.22933686162666966
aF0.22691625361464438
aF0.22186247201052045
aF0.2166074540908538
aF0.20375237312213867
aF0.19195882025610903
aF0.18673373407100513
aF0.19067742317558128
aF0.17839780288778911
aF0.18187439977807285
aF0.18553545361300355
aF0.19540666769369197
aF0.20340670940783026
aF0.20662558050493787
aF0.21474642012095768
aF0.22546724320803907
aF0.23721405489129443
aF0.2437021569218572
aF0.24852135152557733
aF0.24959695994996081
aF0.24477906548766015
aF0.24071853196205764
aF0.23740218091741341
aF0.23006642812511047
aF0.22740004948693995
aF0.22757863580865284
aF0.19462049386341021
aF0.20546630475746877
aF0.19475957573422467
aF0.18341480647236827
aF0.2142954278657874
aF0.26480089542154095
aF0.2273300483666455
aF0.27701042341729037
aF0.23636664395694312
aF0.28016301196944154
aF0.22789335641328348
aF0.26755577519991264
aF0.30283420756774138
aF0.24400117326772783
aF0.27543984717193243
aF0.16781701584755543
aF0.15146359969118689
aF0.12294658878982476
aF0.14361273177101463
aF0.15547325864533518
aF0.16197445786130238
aF0.17908177759930027
aF0.19690637706932981
aF0.21193968947128555
aF0.22675520818734271
aF0.24212492739934396
aF0.25381512236095233
aF0.25937638323012679
aF0.25822097186883142
aF0.20842913175689018
aF0.24237337908102671
aF0.23206292883503674
aF0.26844735187142987
aF0.30761296143718631
aF0.25227817065092079
aF0.28861032826672972
aF0.19063280797894983
aF0.18044762679485779
aF0.15059038652191456
aF0.11180601258100006
aF0.11354642741528563
aF0.11666641257518004
aF0.11909413896175143
aF0.1334817349984421
aF0.16143186544563989
aF0.18191515436281236
aF0.19969729619264384
aF0.21585499315352014
aF0.23025265437989142
aF0.2304607723944597
aF0.2214578528460048
aF0.21908794005526167
aF0.21070318844729999
aF0.19505955732098207
aF0.19079530190020894
aF0.18245173347806096
aF0.16677869014185509
aF0.16224288029481163
aF0.14835365485934907
aF0.1442683574804661
aF0.14305245695054103
aF0.14043201512228287
aF0.14168319390068931
aF0.14660559772928361
aF0.14871406799817827
aF0.15586556393460432
aF0.16121392983881533
aF0.16567780141471519
aF0.16397125157017034
aF0.16756429756648591
aF0.16957192986067227
aF0.16201899607450365
aF0.17326342343010182
aF0.17082755729422777
aF0.17223124550445781
aF0.17464418430043094
aF0.16302246089730843
aF0.16002367252243346
aF0.14759511573237954
aF0.1330233605585196
aF0.12853171727826945
aF0.11807260287058562
aF0.11419103004405992
aF0.10528159669090555
aF0.099710309308814721
aF0.092959158441784082
aF0.094966766316964782
aF0.098222551115978107
aF0.10242732623643909
aF0.10571573146614817
aF0.11497659808786181
aF0.1116934107113918
aF0.097535218260098672
aF0.11257672503307646
aF0.11216628180412606
aF0.10653474757880359
aF0.098410575454461219
aF0.089198490573993025
aF0.083241361846060916
aF0.075172469712584553
aF0.067163336361943354
aF0.047464832837683095
aF0.055643435874281284
aF0.05461799415620925
aF0.055681077892603043
aF0.05583224723971094
aF0.057143489868856576
aF0.056720114471205674
aF0.062230224623974095
aF0.066410943262743286
aF0.070728386642829155
aF0.07462702446080198
aF0.070219147597772105
aF0.070391523696402253
aF0.065012271248667222
aF0.051977280127172967
aF0.041379849249151578
aF0.028228523243530337
aF0.012958240862194633
aF-0.0028106495176964509
aF-0.017554310156977414
aF-0.023596454892539413
aF-0.022305231311854065
aF-0.019349822289481407
aF-0.033718280999802938
aF-0.006754279280347792
aF0.0064167629753358688
aF0.019337104068003999
aF0.010881696263582933
aF0.0328097299499703
aF0.033583508667317213
aF0.026823369467313788
aF0.013129061067050621
aF-0.0027065923001846257
aF-0.021837013606791664
aF-0.038799393287260876
aF-0.052993448245162458
aF-0.068010762364670366
aF-0.081626516162494195
aF-0.08634085452282364
aF-0.091590452893333424
aF-0.087711126725658464
aF-0.082241255701227034
aF-0.075833341927655271
aF-0.066375633852320218
aF-0.015302509693072175
aF-0.044373680389062406
aF-0.046234440407767786
aF-0.048106945743505658
aF-0.047231334437385891
aF-0.054724389416668184
aF-0.058129437188094782
aF-0.065161297686765096
aF-0.075366640885785388
aF-0.088989857766681418
aF-0.096891782875674959
aF-0.10143366021928815
aF-0.1019628882605907
aF-0.10569517316129159
aF-0.10671737161003549
aF-0.10821970717491164
aF-0.11162318899760254
aF-0.11170380181068865
aF-0.11804698204293368
aF-0.12048931122241943
aF-0.1165617533546755
aF-0.1161252468464629
aa(lp9
F0.27380578352058094
aF0.2738149464592064
aF0.27388682684150334
aF0.27411437731189381
aF0.27452216553143383
aF0.27543498896219371
aF0.27543498896219371
aF0.27664282406270707
aF0.27815343561202732
aF0.27871699378820169
aF0.27998170402274508
aF0.28132758241388706
aF0.28283657109941801
aF0.28432209067784259
aF0.28597429085099257
aF0.28769427679626342
aF0.28951992365778317
aF0.29140212108057512
aF0.293354276416252
aF0.29535604144961014
aF0.29743340696841275
aF0.29962384864262448
aF0.30185016809014664
aF0.30411383837195727
aF0.30644442057615601
aF0.30877839831074466
aF0.31119224591090044
aF0.31364009874922516
aF0.31617176626048171
aF0.31864066639379651
aF0.32122733650394164
aF0.32378394618328249
aF0.32640651903387324
aF0.32904609450354844
aF0.3317884596689224
aF0.33441889716710721
aF0.33712970387356367
aF0.33988894682234594
aF0.34257945524786892
aF0.34542813047500742
aF0.34375326014307817
aF0.32272878511463626
aF0.30148712097692004
aF0.28250665537462766
aF0.26177819070134806
aF0.23380254065504152
aF0.22556990245490119
aF0.20954374802886094
aF0.19246778798467906
aF0.17745010608442449
aF0.16509933866691057
aF0.15596718451908231
aF0.14502346497399812
aF0.13575027147931495
aF0.12576818611434473
aF0.12274025933989792
aF0.10799415745299343
aF0.10039983527365845
aF0.091271962989520325
aF0.084908976226724095
aF0.079364830355937749
aF0.071880613242920707
aF0.063625847919192083
aF0.059032101017670965
aF0.0557320761618183
aF0.054594242666676548
aF0.050344137172532714
aF0.046248640663235599
aF0.045469815847198732
aF0.045587320548217375
aF0.044353656946319403
aF0.043748153982976261
aF0.039613502763871176
aF0.038172000244838536
aF0.036304396112582418
aF0.03289053672458838
aF0.029049146354879551
aF0.022720806173538208
aF0.025667077932249684
aF0.026515634396508635
aF0.024311690183480977
aF0.024432506150808102
aF0.025194744986829463
aF0.020338485823380832
aF0.016775641297748275
aF0.021818639028179199
aF0.0177464774276366
aF0.02074365873550657
aF0.021603402036789805
aF0.023817629588635991
aF0.026636734364998884
aF0.026363263091155973
aF0.025904000441023159
aF0.02471472684509949
aF0.023509748921122765
aF0.022366193270677896
aF0.022243961978873017
aF0.021512036365900024
aF0.023079530851479981
aF0.020922000542825357
aF0.019005825969891622
aF0.019251719482438649
aF0.016868843613522644
aF0.01442657249036541
aF0.015423811365748347
aF0.013580362936817091
aF0.012354187915039016
aF0.011974490063289895
aF0.010619103094744165
aF0.0073244485136326198
aF0.006229773052386688
aF0.0065801017508879279
aF0.0037311042916605246
aF0.0049214783920912856
aF0.0053102919789759359
aF0.0037863569520127502
aF0.0065688368915660829
aF0.0079937674745967843
aF0.0082799969545368571
aF0.0093540214740643647
aF0.0091116436462454296
aF0.011475220699859746
aF0.012682171807741787
aF0.013736672807750629
aF0.011821677151733039
aF0.010984443283296126
aF0.0068666737487142904
aF0.0057177361201836687
aF0.0043649687502785462
aF0.0032030339723644824
aF0.0021559759094314642
aF0.00011916240664016228
aF0.00032164784820965637
aF0.0010124073853074963
aF0.00068264892421063901
aF0.001216510789890692
aF0.0022181926450082334
aF0.0035977384377707256
aF0.0026123183800223181
aF0.001998284848775355
aF0.00162432056309037
aF0.0020589959490649422
aF0.0018852627238073322
aF0.0021420409320313414
aF0.00046772987368380538
aF-0.00012109284895559525
aF0.00065732371540927741
aF-0.00094657821735365699
aF-0.0026084989935009676
aF-0.0034884065724215909
aF-0.0010197237312055273
aF-0.0019061325180704139
aF-0.0025365382482375599
aF-0.0015224446060240282
aF-0.0039070387209880712
aF-0.0015434152441067069
aF-0.00092465180612585701
aF-0.00082634917275993319
aF0.00081937417441373139
aF-0.00011829394532240532
aF-0.00031373029174498263
aF2.5515270432477025e-06
aF-0.00068817734039612556
aF-0.0013383449482009878
aF-0.0022902456516385068
aF-0.0023956818636704253
aF-0.0038256606844090614
aF-0.0037032218532926688
aF-0.0015693605838818698
aF-0.0012782588065148636
aF-0.0012261227468387088
aF-0.00032780627006597933
aF0.0013898437607618138
aF0.0028689943790365219
aF0.0021351033843879687
aF0.00088007006035529384
aF0.0016630786270431142
aF0.00079681553875600789
aF6.2061288339862756e-05
aF0.0016887188996348142
aF0.0012170827908596854
aF0.0029681878319848475
aF0.0026352444519376177
aF0.001116431686337178
aF0.0014950089428375801
aF0.0013576610259360153
aF0.0014373942549545697
aF-0.00014918102236933262
aF0.0011881997165256101
aF0.00021238361843971964
aF0.00069650870762148797
aF0.0009172264240669847
aF0.0024994000247100519
aF0.0024392984736201599
aF0.0023839482853959828
aF0.0015958935290855385
aF0.0015188270046697446
aF0.0036568590535245339
aF0.0045871036929953004
aF0.0049809462070692402
aF0.0050726161649195106
aF0.003670230904992011
aF0.0038594400480265719
aF0.0029962391886269235
aF0.0014507282656077299
aF0.00041544288962580631
aF-0.000304079689377705
aF0.0017477396468477437
aF0.0010467248101945614
aF0.001217700532400624
aF-0.00017252956064395632
aF-0.0020071626159033234
aF-0.00077272908022023388
aF-0.002428518132766168
aF-0.00056862377384353524
aF-0.00071264879020642663
aF0.00045668079477865239
aF0.00049495180453887268
aF-0.00040221084436277074
aF0.00010601198001496589
aF0.00050161203167835235
aF0.0020134943204061354
aF0.00083791022422889379
aF-0.00012448428317482431
aF0.00045813776365773054
aF-0.00044362000845876313
aF-0.0020168260675677307
aF-0.00050197663962764177
aF-0.00044681721592100147
aF-0.00046139402424643533
aF0.00066324516891872712
aF0.0014433217064281445
aF-0.00091353870017276816
aF0.0023202619998446542
aF0.0024704551177051597
aF0.0023228778924261275
aF0.00040744223941423013
aF-0.0014985784629509918
aF-0.0027044554963792343
aF-0.0039655718288412458
aF-0.0028533294522437285
aF-0.0017393569311977993
aF-0.0015285103520200295
aF-0.0033087290233685595
aF-0.0020075854967561034
aF-0.0014211387968971127
aF-0.00054528574419711426
aF0.0026279191334753673
aF0.0026747795204461965
aF0.0008165961417451389
aF0.0013480076196424194
aF-9.4994567190737024e-05
aF0.00052976042855301946
aF0.00052976042855301946
aF0.00049044348113005921
aF0.00098037533104386259
aF0.00091480490453430983
aF0.0012687543252817369
aF0.00036283113775420982
aF-0.0019775556897036269
aF-0.0022962003133883556
aF-0.0041278293395178517
aF-0.00463171723285212
aF-0.0065532573991891191
aF-0.0069325971285924357
aF-0.0055154777478820458
aF-0.0056507379831566241
aF-0.005712474686547649
aF-0.0033639879255045902
aF-0.0038848897511564789
aF-0.0038660524377448595
aF-0.0027249398604923653
aF-0.0016605910811411284
aF-0.0034681781214444601
aF-0.0015985664754721034
aF0.00021388715687765448
aF0.0021699116670545631
aF0.0040170189516299378
aF0.001919345008995123
aF0.0024671816922109918
aF0.0035738281145716953
aF0.0043380237498158837
aF0.0036025067704861611
aF0.0025265921608002384
aF0.0023797553671250594
aF0.0021192237012211393
aF0.0012018512779298435
aF0.0024305287673743125
aF0.0032819404576125075
aF0.0032959548227003985
aF0.0024109363931780472
aF0.0028921151165842355
aF0.0060841459944351904
aF0.010033862522077594
aF0.010937713388617969
aF0.010619503349130652
aF0.013807969583261793
aF0.015553941634958292
aF0.017331161616827944
aF0.018375207628963622
aF0.018220210093075059
aF0.019467449574748628
aF0.019837169154862683
aF0.021921545757324194
aF0.023158161722961867
aF0.024038325019962749
aF0.023423924393805761
aF0.021946753201220175
aF0.023770293460705784
aF0.024059249039722633
aF0.024312384581929268
aF0.023761266280877987
aF0.025967062743249746
aF0.025775163781506766
aF0.023743903198778782
aF0.024777795389109885
aF0.025245957262502498
aF0.025674972228316894
aF0.024186938771464876
aF0.026110862518992362
aF0.026336158144983308
aF0.027386001213827761
aF0.026214908373681747
aF0.025163501737994167
aF0.024121136326147954
aF0.025805046321472597
aF0.024704170428239497
aF0.023985541375216839
aF0.025716166440983103
aF0.024200758080808866
aF0.023374715730734089
aF0.020930451918097157
aF0.023031294346235916
aF0.02215311905737689
aF0.023308427986726336
aF0.02409884379528885
aF0.026128895032404641
aF0.028275882968212835
aF0.029493757977976376
aF0.031084751219135724
aF0.031965329594759631
aF0.031336260776661191
aF0.030975960048308694
aF0.032215937214525293
aF0.030563815063672912
aF0.030306166711775356
aF0.028141101009622298
aF0.027910585691924526
aF0.028728908515878625
aF0.027715523706238435
aF0.026174154206773777
aF0.027216255903254237
aF0.026708436856457362
aF0.024192376925604869
aF0.025549137866810651
aF0.024623501614345317
aF0.023324747130484179
aF0.022340806375497527
aF0.024478412910246994
aF0.025683904220941668
aF0.026444462456673565
aF0.028381256762406701
aF0.029206486120140894
aF0.02906545301506978
aF0.02906545301506978
aF0.030575861706416321
aF0.031729945685694053
aF0.032438934303630096
aF0.03300051695523025
aF0.032252975959623412
aF0.031385954738423691
aF0.032270069084573055
aF0.031785338396070409
aF0.032163484384321039
aF0.031820435946405212
aF0.031545822426126004
aF0.031586209888235441
aF0.031741018610163901
aF0.032325580388841695
aF0.03261162573615952
aF0.031651938992592651
aF0.031812630595757216
aF0.030431236454765503
aF0.029329780075638551
aF0.027928299874362759
aF0.025153101365729298
aF0.026372744360755571
aF0.026731809215914712
aF0.025934142015016887
aF0.028233535585988671
aF0.028957638683408206
aF0.028744709591580663
aF0.030164022569186981
aF0.030464427140147916
aF0.031345186527502164
aF0.031501820971193556
aF0.030572169691295736
aF0.031825532362881888
aF0.031457254634826758
aF0.030873866311504281
aF0.030779206539211477
aF0.030579762821294369
aF0.029488287054471402
aF0.029495833371091497
aF0.029613909195328282
aF0.031816425600310574
aF0.032464219769823638
aF0.033586988719752325
aF0.033837565130598962
aF0.033230133456060122
aF0.031283105745778896
aF0.033094742923548609
aF0.03103752588286806
aF0.029794100131099267
aF0.030027127766778496
aF0.028757767403300456
aF0.02828011489763254
aF0.027525526928109997
aF0.025685235281338058
aF0.023588927509133537
aF0.02315870319770694
aF0.022213597261108258
aF0.023307510444507022
aF0.024163154454276407
aF0.023758978667113503
aF0.021721120518903764
aF0.023716188118239195
aF0.02533266188133599
aF0.026781081857270381
aF0.025993649621366598
aF0.026889426740555368
aF0.028115937258212959
aF0.027014930287519952
aF0.025654756651018858
aF0.024491027555316642
aF0.023797576297716887
aF0.023499367274209308
aF0.023764110973847057
aF0.024400228326307151
aF0.025105343917392262
aF0.026487462105305337
aF0.02643319291601387
aF0.023988421958442786
aF0.022486884402328926
aF0.021088521972063665
aF0.021279369193235521
aF0.019815012382801339
aF0.019685730996188852
aF0.021668979777889751
aF0.024201449358365254
aF0.02737971573753626
aF0.028072794048553673
aF0.027085459323623121
aF0.028365568038813155
aF0.027941785248273183
aF0.02861595407525374
aF0.030111045429143116
aF0.029248870953067881
aF0.028790243404437213
aF0.028401814077368054
aF0.026950842772303418
aF0.027926258811058563
aF0.028554288372153496
aF0.029399869065983474
aF0.028250460182775584
aF0.028535403855251849
aF0.026578432983369461
aF0.025666383533801389
aF0.026393083213283756
aF0.02600977370938054
aF0.02570203192155697
aF0.026838908863330631
aF0.0257486315189982
aF0.025305330670500399
aF0.025807095187006548
aF0.023788162127293185
aF0.022630876112923547
aF0.024064599808889357
aF0.024777672113879736
aF0.027453150324000589
aF0.027453150324000589
aF0.026448179438929367
aF0.025724706761674127
aF0.027478086250301056
aF0.026178754401437968
aF0.026699258313372297
aF0.02781726790314977
aF0.028783087199304926
aF0.027479003792520378
aF0.029744531005012863
aF0.029714052374693673
aF0.031286810244467084
aF0.030133974621950319
aF0.02942355975641487
aF0.029246820527087984
aF0.026922289732288024
aF0.027788945809135157
aF0.027117638840029143
aF0.027283370683616137
aF0.029335004448683227
aF0.030496285204687994
aa(lp10
cnumpy.core.multiarray
scalar
p11
(cnumpy
dtype
p12
(S'f8'
I0
I1
tRp13
(I3
S'<'
NNNI-1
I-1
I0
tbS'\xce\x82%\x05J\x15\xfb?'
tRp14
ag11
(g13
S'\xdc\xd0\xe3\x9fRf\xfa?'
tRp15
ag11
(g13
S'\xe6\x97O\x07h.\xfa?'
tRp16
ag11
(g13
S'\x97\x1c\xf6\x1eDw\xf9?'
tRp17
ag11
(g13
S'-Q\xf4\x03&Y\xf8?'
tRp18
ag11
(g13
S'lr[\xa8C\x10\xf7?'
tRp19
ag11
(g13
S'.\xf5\x87z\x0fZ\xf5?'
tRp20
ag11
(g13
S'\xe1\xdc\x8fl\xc3\xd0\xf3?'
tRp21
ag11
(g13
S'J\xdd\xca\x116|\xf2?'
tRp22
ag11
(g13
S'X\xcabQ\xe7\xf4\xf0?'
tRp23
ag11
(g13
S'\xbe\x02\xbcH\xb0\xda\xee?'
tRp24
ag11
(g13
S'c\xc6\x0c\x9a7\xc2\xec?'
tRp25
ag11
(g13
S'\xc5h2A5u\xeb?'
tRp26
ag11
(g13
S'0\xa1\x88\x1e\xa5e\xea?'
tRp27
ag11
(g13
S'|\x8a|\xa7Z\x81\xe9?'
tRp28
ag11
(g13
S'A\x04:\xa7\xac@\xe8?'
tRp29
ag11
(g13
S'\x7f\x928\x89\x10\xa0\xe6?'
tRp30
ag11
(g13
S'\x18\xd3\xca\xa4\xe0p\xe4?'
tRp31
ag11
(g13
S'\x97\x18\xe4N\x8bm\xe1?'
tRp32
ag11
(g13
S'\xa8\x0cO\xed\x9d\x88\xdb?'
tRp33
ag11
(g13
S'\xf4\xab9\x1cC\xdf\xd1?'
tRp34
ag11
(g13
S'\xd0\xdeG\r\xd4\xce\xc4?'
tRp35
ag11
(g13
S'\x80 \xe8\x04\xbdG\x88?'
tRp36
ag11
(g13
S'\xe0 \x16\xfa\x81\x8d\xc0\xbf'
tRp37
ag11
(g13
S'd\xe2\xda\x17\xb6\xd9\xd0\xbf'
tRp38
ag11
(g13
S'\x88#\xfe\xb3\x94~\xd8\xbf'
tRp39
ag11
(g13
S'x\xec[m[\xd1\xdf\xbf'
tRp40
ag11
(g13
S'W\x83\x9bY\xe71\xe3\xbf'
tRp41
ag11
(g13
S'B\xb4\xb2o]\xcf\xe6\xbf'
tRp42
ag11
(g13
S'g$\rA\xc2\x8e\xea\xbf'
tRp43
ag11
(g13
S'\xc9\xe48-cA\xee\xbf'
tRp44
ag11
(g13
S'\x9ed\xae\x80\xdb\xf1\xf0\xbf'
tRp45
ag11
(g13
S'\xf4\xa8i\xc5\xe0\xde\xf2\xbf'
tRp46
ag11
(g13
S'?\xc3\x11\x8e\xb2\xde\xf4\xbf'
tRp47
ag11
(g13
S'\x1f.5X\xc5\xe3\xf6\xbf'
tRp48
ag11
(g13
S'\x86\x9c\x9d\xeb\x9c\xe8\xf8\xbf'
tRp49
ag11
(g13
S'\xcav}\x10H\xdc\xfa\xbf'
tRp50
ag11
(g13
S'\xbc\xbb\x08r\x7f\xda\xfc\xbf'
tRp51
ag11
(g13
S'&:j\xee\xb5\xe6\xfe\xbf'
tRp52
ag11
(g13
S'\xa4\x9d\xe7^TS\x00\xc0'
tRp53
ag11
(g13
S'\x87y\xcd\xf7\xf52\x01\xc0'
tRp54
ag11
(g13
S'\x0c;\x82K\xa4\xec\x01\xc0'
tRp55
ag11
(g13
S'\xc2\x01\x8az0\x91\x02\xc0'
tRp56
ag11
(g13
S'[a\xfc\xc6\xff\r\x03\xc0'
tRp57
ag11
(g13
S'\xc5B\xa3\x82]Z\x03\xc0'
tRp58
ag11
(g13
S'L.\x90[\xc1~\x03\xc0'
tRp59
ag11
(g13
S'r5\x92!\xfc4\x03\xc0'
tRp60
ag11
(g13
S'\xa6\xc7!\x8a\x8d\x9e\x02\xc0'
tRp61
ag11
(g13
S'\x1a\x05:\x1dL\x07\x02\xc0'
tRp62
ag11
(g13
S'\x14\xf4n\x1ev\x10\x01\xc0'
tRp63
ag11
(g13
S'\x132q\xb2\x1e\xbf\xff\xbf'
tRp64
ag11
(g13
S'\xc8\xa8\x90\xf2h\xd9\xfc\xbf'
tRp65
ag11
(g13
S'\xc8A\x9e\xe8\xf5`\xf9\xbf'
tRp66
ag11
(g13
S'\x82\x07\xe2x\xdc\xa2\xf5\xbf'
tRp67
ag11
(g13
S'V\xab\xf5\x89R\xb8\xf1\xbf'
tRp68
ag11
(g13
S'\xc1\xf7V\xbe}o\xeb\xbf'
tRp69
ag11
(g13
S'\x90\xbaB\xd5\x88\xa7\xe3\xbf'
tRp70
ag11
(g13
S'\xa6\x10\xad\xce\x84\xb7\xd8\xbf'
tRp71
ag11
(g13
S'|\xa6$\xc2\x10u\xc0\xbf'
tRp72
ag11
(g13
S'\xdd\xf7\xe2\xe3"\xe1\xb8?'
tRp73
ag11
(g13
S'\x1ct\xef\xa4V2\xd5?'
tRp74
ag11
(g13
S'\xd0\xd2=\x91\xa2\xb8\xe0?'
tRp75
ag11
(g13
S'\xcf|\x9d\xb0\x85\x87\xe7?'
tRp76
ag11
(g13
S'o=\x9f\x8at?\xed?'
tRp77
ag11
(g13
S'Dg[\x9b@\x04\xf1?'
tRp78
ag11
(g13
S'\xf8f\x1b\xe1\x9a"\xf3?'
tRp79
ag11
(g13
S'\xe0W\x8c\x0b\xd4\xfe\xf4?'
tRp80
ag11
(g13
S'\xd6\x0f7\xd4\x03Z\xf6?'
tRp81
ag11
(g13
S'\x8a9s\xfeLD\xf7?'
tRp82
ag11
(g13
S'\xe55K\xba{\xe0\xf7?'
tRp83
ag11
(g13
S'\xbe>\xe2\xd2\xce\xd7\xf7?'
tRp84
ag11
(g13
S'E\xba@\x98\xbe_\xf7?'
tRp85
ag11
(g13
S'\x03\x07\xeb\xe8\xdfc\xf6?'
tRp86
ag11
(g13
S'F%\xbd\xf9\xfb\xd6\xf4?'
tRp87
ag11
(g13
S'\xa6lw(\xc2\xdf\xf2?'
tRp88
ag11
(g13
S'qLx\xb4\x1c~\xf0?'
tRp89
ag11
(g13
S'\xcd\xa0g\xeaA\x86\xeb?'
tRp90
ag11
(g13
S'\xb2\xd6\xa2\xb1\x83\xae\xe5?'
tRp91
ag11
(g13
S'\xcd\x919\x9d|\x86\xdf?'
tRp92
ag11
(g13
S',C\x16\xb9\xc4\xe2\xd2?'
tRp93
ag11
(g13
S'\x1d\x87\xcf\xe8\xf13\xbe?'
tRp94
ag11
(g13
S'\xac\x9d\xa5\xee\x8e\xce\xaf\xbf'
tRp95
ag11
(g13
S'\x82U\x90h9\x06\xcb\xbf'
tRp96
ag11
(g13
S'\x12\x1a\xaf\xff\x0e\xfb\xd6\xbf'
tRp97
ag11
(g13
S'~\x8cj\x8b\x02\xaf\xde\xbf'
tRp98
ag11
(g13
S's\x8bV]Aw\xe2\xbf'
tRp99
ag11
(g13
S' \xb9\xd2\xa9m\xec\xe4\xbf'
tRp100
ag11
(g13
S'i8\x9d\x8c\xba\xa5\xe6\xbf'
tRp101
ag11
(g13
S'4R\xde\xd5\xdb\xa4\xe7\xbf'
tRp102
ag11
(g13
S'\xc2u\x99\x93A\xec\xe7\xbf'
tRp103
ag11
(g13
S'\xe6\xbd\xbf\xb3\xd3|\xe7\xbf'
tRp104
ag11
(g13
S'\x19\x1f\xc9\x9f\x87q\xe6\xbf'
tRp105
ag11
(g13
S'\xf4\x059\x9d\xef\xca\xe4\xbf'
tRp106
ag11
(g13
S'r\x05I\xff,\xa1\xe2\xbf'
tRp107
ag11
(g13
S'\xeeeAWZ\r\xe0\xbf'
tRp108
ag11
(g13
S'\xfc\xec4\x1fm&\xda\xbf'
tRp109
ag11
(g13
S' _v\xd9~\xae\xd3\xbf'
tRp110
ag11
(g13
S'\x18<*\xa2H\x8b\xc9\xbf'
tRp111
ag11
(g13
S'\\\xe9~I\xfb\xff\xb5\xbf'
tRp112
ag11
(g13
S"\xa0'\xe7\xcd6|\x99?"
tRp113
ag11
(g13
S',z\xac\xd9Uq\xc1?'
tRp114
ag11
(g13
S'\x94E\xdb\xdb\xd9\x06\xcf?'
tRp115
ag11
(g13
S'\xf9\x84\xd0\xfc\xca\xe4\xd5?'
tRp116
ag11
(g13
S'\xcc\x9d\x9e3\x05\xac\xdb?'
tRp117
ag11
(g13
S'\x80l\xc7j\xdad\xe0?'
tRp118
ag11
(g13
S'\x15<\xf6S\xd8\x80\xe2?'
tRp119
ag11
(g13
S'\xa9 \x08t\xed,\xe4?'
tRp120
ag11
(g13
S'\x92F\xec\x99?f\xe5?'
tRp121
ag11
(g13
S'h\\[\xbb\x1c\x1f\xe6?'
tRp122
ag11
(g13
S'\xbc\xb2 \xb5\x11^\xe6?'
tRp123
ag11
(g13
S'k\xe8\xe3\x0e\x1d \xe6?'
tRp124
ag11
(g13
S'\xe8\x83\xba;hv\xe5?'
tRp125
ag11
(g13
S'D\xc2o\x162d\xe4?'
tRp126
ag11
(g13
S'\x1e6\x01\x9d\xd1\xf5\xe2?'
tRp127
ag11
(g13
S'\x90\xfc=\x1d\xa2;\xe1?'
tRp128
ag11
(g13
S"\xb5\x16\xbc'\xf7\x98\xde?"
tRp129
ag11
(g13
S'\xae\xdfTk\x96K\xda?'
tRp130
ag11
(g13
S'\x86\x96$t\xef\xb4\xd5?'
tRp131
ag11
(g13
S'\xa9\xf8\xd4\xa9m\x16\xd1?'
tRp132
ag11
(g13
S'\xec\xffg<Q\xd6\xc8?'
tRp133
ag11
(g13
S'\xa0f\xc3dY\xd0\xbe?'
tRp134
ag11
(g13
S'\xe0\x83\xf9\xa7\xec\xd1\xab?'
tRp135
ag11
(g13
S'\xc0J\xa6\xf3\x14\xb8x\xbf'
tRp136
ag11
(g13
S'\xd4\xfe\xd4\xe5w`\xaf\xbf'
tRp137
ag11
(g13
S'\xe8\xec\xc7\x1d\xf7\xaa\xbb\xbf'
tRp138
ag11
(g13
S'\xd8"*\xec\x9c\xa0\xc2\xbf'
tRp139
ag11
(g13
S'\x94\xf0C\x89^0\xc6\xbf'
tRp140
ag11
(g13
S'FF\xb6S\x13b\xc8\xbf'
tRp141
ag11
(g13
S'H:\xea\xf9\xd1\xa0\xc9\xbf'
tRp142
ag11
(g13
S'\xa2\x8a\x87\xb4\xd3\x90\xc9\xbf'
tRp143
ag11
(g13
S'\xe6\xe3\x8aaF\xf7\xc7\xbf'
tRp144
ag11
(g13
S'\x1c\xcc\x9ef-\xa9\xc5\xbf'
tRp145
ag11
(g13
S'\xe4M[\xc1\xect\xc2\xbf'
tRp146
ag11
(g13
S'\xe0tbQ\x84\xf6\xbc\xbf'
tRp147
ag11
(g13
S'\xcc)k~A\xdf\xb3\xbf'
tRp148
ag11
(g13
S'@!\xc96\xda\x84\xa3\xbf'
tRp149
ag11
(g13
S'\xe0\xa8\x83{/ u?'
tRp150
ag11
(g13
S'\x9e\xc6\xbcu\xe9\xb5\xaa?'
tRp151
ag11
(g13
S'\x06s\xfc\xca\xd0K\xb8?'
tRp152
ag11
(g13
S'Wc\xb1\xea\xbf\x0b\xc2?'
tRp153
ag11
(g13
S'\x07\x96\x05\xb6k\x0e\xc7?'
tRp154
ag11
(g13
S'\x08xhR\x1a0\xcc?'
tRp155
ag11
(g13
S'\x80"\x88Ilp\xd0?'
tRp156
ag11
(g13
S'z\x1a\xc3j0t\xd2?'
tRp157
ag11
(g13
S'\x92n\xf3\x07$\xec\xd3?'
tRp158
ag11
(g13
S'\xbe6\x8au\xd1\x1b\xd5?'
tRp159
ag11
(g13
S'M\xf0\xa4\x82z\xc7\xd5?'
tRp160
ag11
(g13
S'\xde\xfa\x03)\xb8\xe6\xd5?'
tRp161
ag11
(g13
S'J\xb6\xbb`\t\x9d\xd5?'
tRp162
ag11
(g13
S'A\xdemR\x88\xf1\xd4?'
tRp163
ag11
(g13
S'\x99\n\xe10\xce\x05\xd4?'
tRp164
ag11
(g13
S'\xfc\rL\xb5\xed\xbe\xd2?'
tRp165
ag11
(g13
S'2w<n\x19]\xd1?'
tRp166
ag11
(g13
S'\x80,\xf7Cq\xa8\xcf?'
tRp167
ag11
(g13
S'\xb8\xce\xb5\x82\x17y\xcc?'
tRp168
ag11
(g13
S'\xce\xfaw6\xf25\xc9?'
tRp169
ag11
(g13
S'f\xf0\xff\x9e\xd5\xe0\xc5?'
tRp170
ag11
(g13
S'\xb9\x0e\xae\xff\xedX\xc2?'
tRp171
ag11
(g13
S'\xc3\x0f(\x0c%r\xbd?'
tRp172
ag11
(g13
S'\xddv\xbd\xca@\xdd\xb5?'
tRp173
ag11
(g13
S'.\x7f\xf6\xfb\xf7D\xae?'
tRp174
ag11
(g13
S'\xa8\xcc\xfc\x940\x12\xa2?'
tRp175
ag11
(g13
S'\xf8\xf3\xe6\x89\xbb\x85\x84?'
tRp176
ag11
(g13
S' ,\x99\xdbiZ\x87\xbf'
tRp177
ag11
(g13
S'\xf0\xe2\xf7\xda\xcb\xa4\x9c\xbf'
tRp178
ag11
(g13
S'\xe0\xfeV\x17\xc3\xc5\xa3\xbf'
tRp179
ag11
(g13
S'\xc0\x88\xe3\x05\x0c\xbd\xa7\xbf'
tRp180
ag11
(g13
S'\x10\xd2\xc42\x03\\\xa8\xbf'
tRp181
ag11
(g13
S'X\x8d\x13\xb5\x9f\x86\xa6\xbf'
tRp182
ag11
(g13
S'\x8c\xbax/\xccE\xa2\xbf'
tRp183
ag11
(g13
S'pL\xb0e\x19\xf0\x98\xbf'
tRp184
ag11
(g13
S'\xe0\xd8C!\x82\xb2\x85\xbf'
tRp185
ag11
(g13
S" '\xc1*\x06\xbcv?"
tRp186
ag11
(g13
S' %\xb5\xdd\x81_\x96?'
tRp187
ag11
(g13
S'0\xa2\xa1F\xde\x0b\xa4?'
tRp188
ag11
(g13
S'P\xe6\x9bt\xda\x04\xad?'
tRp189
ag11
(g13
S'\xb6X\x92\xf8\xfd\xde\xb2?'
tRp190
ag11
(g13
S'\xc0CM.\xa9\xd8\xb6?'
tRp191
ag11
(g13
S'\xb4\xe9\xc5\xe7\xb4\x81\xba?'
tRp192
ag11
(g13
S'\xf5%~\x8f\xb1\x9a\xbd?'
tRp193
ag11
(g13
S'\xe3J\x0e\xa8\xab<\xc0?'
tRp194
ag11
(g13
S"'\xf1*\xdd\xdb\xfc\xc0?"
tRp195
ag11
(g13
S'\x07o\x9e\xa4\x0b[\xc1?'
tRp196
ag11
(g13
S'\xd0\xd6\xfa\x80\x1e\x94\xc1?'
tRp197
ag11
(g13
S'\xbd<)L\xd0h\xc1?'
tRp198
ag11
(g13
S'\xa7\x00b\xfe\xce\xb5\xc0?'
tRp199
ag11
(g13
S'\x11\x92\x0f.Px\xbf?'
tRp200
ag11
(g13
S'\x92\x07\xafM\xcab\xbd?'
tRp201
ag11
(g13
S'\xc2\x13\xb9 y\xa3\xba?'
tRp202
ag11
(g13
S'\x1e\xa0\xfa\x1f\x10[\xb7?'
tRp203
ag11
(g13
S'V\x0fw\x02\xf7\xc8\xb4?'
tRp204
ag11
(g13
S'x\xa7\xb8\xd0Q\xe8\xb2?'
tRp205
ag11
(g13
S'\xa6\xad\xb0\x1b#[\xb2?'
tRp206
ag11
(g13
S'\x0e7\xd7\x8b\n\x04\xaf?'
tRp207
ag11
(g13
S'9\xc3#\xa8O\r\xad?'
tRp208
ag11
(g13
S'\xab\xff\x16A\x87\xba\xac?'
tRp209
ag11
(g13
S'\x1f+f7|,\xad?'
tRp210
ag11
(g13
S'/\xd8%\xec\xdf3\xae?'
tRp211
ag11
(g13
S'\xc2\x840;2\xa3\xaf?'
tRp212
ag11
(g13
S'Y\x1f\x9f7\nV\xb0?'
tRp213
ag11
(g13
S'\x82e%wq\xa4\xb0?'
tRp214
ag11
(g13
S'\xafV\x01\xb6:\xe0\xb0?'
tRp215
ag11
(g13
S'b\xa9\xe7\xfe\x17\x17\xb0?'
tRp216
ag11
(g13
S'\xfc\xb7M\x15^$\xb0?'
tRp217
ag11
(g13
S'z\tA#Zh\xad?'
tRp218
ag11
(g13
S'\xcb\x8dV\xb0\xa4Q\xab?'
tRp219
ag11
(g13
S'\xfe 7\x8d_M\xa8?'
tRp220
ag11
(g13
S'\xcc\xf5\x1c\xd45n\xa4?'
tRp221
ag11
(g13
S'\xd8\x91\xcd=2\xb6\xa0?'
tRp222
ag11
(g13
S'\x84\xe9\xaa\xf9U\xdf\x9a?'
tRp223
ag11
(g13
S'\xac\xd1F\xc8 \t\x95?'
tRp224
ag11
(g13
S'\x18W\xfb\x9afR\x93?'
tRp225
ag11
(g13
S'\xb0T\xe4\x13\x8c \x93?'
tRp226
ag11
(g13
S'h\x02\xd8t`\x13\x93?'
tRp227
ag11
(g13
S'D*\xfeP\x03\t\x96?'
tRp228
ag11
(g13
S'\xb8\xa6\xfa\x05/0\x99?'
tRp229
ag11
(g13
S'\x80\xedx\xe4<3\x9e?'
tRp230
ag11
(g13
S'z\xb6\xcd\x1c\x12\x13\xa1?'
tRp231
ag11
(g13
S'k>\x17UeQ\xa3?'
tRp232
ag11
(g13
S'+U\xba\xa2V4\xa5?'
tRp233
ag11
(g13
S'\xbd\xc7\xca\x08\x05b\xa8?'
tRp234
ag11
(g13
S'\xc6\x86\xf5w1\xed\xab?'
tRp235
ag11
(g13
S';\xa8A]&X\xa9?'
tRp236
ag11
(g13
S'H\xd32Q\xf6\xe7\xa9?'
tRp237
ag11
(g13
S'\x07g\xc8-\xc7e\xa4?'
tRp238
ag11
(g13
S'\xec\xb9vQ\x1e\xc6\xa0?'
tRp239
ag11
(g13
S'\n\xe4-\xfd8\xc5\x9a?'
tRp240
ag11
(g13
S'`^\xf19\xb2\x8f\x91?'
tRp241
ag11
(g13
S'\xd0\xc3\x8c\xb4#\x1dz?'
tRp242
ag11
(g13
S'\xd0\x9f\xe9^Y\xb3x\xbf'
tRp243
ag11
(g13
S'\xbc\x8d\xa0\xd5\xc7\x91\x92\xbf'
tRp244
ag11
(g13
S'\x18\x98\xb7\xf2\x0b\xb4\x9d\xbf'
tRp245
ag11
(g13
S'XQ\x83\xc5\x1a\xde\xa3\xbf'
tRp246
ag11
(g13
S'\xd8\x82\x97\x7fR\xf1\xa7\xbf'
tRp247
ag11
(g13
S' \x91\xef\x9e\xb9\x85\xaa\xbf'
tRp248
ag11
(g13
S'\xa4y\x90$\xd2\xce\xab\xbf'
tRp249
ag11
(g13
S"x\xa6\xe7'\xd2;\xac\xbf"
tRp250
ag11
(g13
S'\x04\x91\xc6\x96\xf9!\xab\xbf'
tRp251
ag11
(g13
S' |U&\x0f\xad\xa8\xbf'
tRp252
ag11
(g13
S'\x9e\x8e\xb4\xec\x00\x1f\xa6\xbf'
tRp253
ag11
(g13
S'\xd0\xaf\x92\xb3\x93\xc6\xa2\xbf'
tRp254
ag11
(g13
S'\xc8T \xe0.@\xa0\xbf'
tRp255
ag11
(g13
S'\x80y\xb0\xe9\xc7\xc8\x9c\xbf'
tRp256
ag11
(g13
S'8\xc0\x90\x1f\x18\x13\x97\xbf'
tRp257
ag11
(g13
S'p\xae,@\xa8D\x96\xbf'
tRp258
ag11
(g13
S'<\xdb\x0c\xe0\x008\x91\xbf'
tRp259
ag11
(g13
S'\x08\xc4\x18p#\xb7\x8d\xbf'
tRp260
ag11
(g13
S'\x80\xe6Vq\x8fE\x88\xbf'
tRp261
ag11
(g13
S'\x108QQN\x97\x82\xbf'
tRp262
ag11
(g13
S'P\xd25\xbe\x13\xc5~\xbf'
tRp263
ag11
(g13
S'\xd0\xdd\x9a\xca\xc1#v\xbf'
tRp264
ag11
(g13
S'\xc0p\xad\x11\x0e\xabq\xbf'
tRp265
ag11
(g13
S'\x00\xca\xe8\x98\x08Nu\xbf'
tRp266
ag11
(g13
S'\xf0\xf7}=@1v\xbf'
tRp267
ag11
(g13
S'\xf0F\r\xab8\xf7x\xbf'
tRp268
ag11
(g13
S'H\x14\x1b_\xb36\x83\xbf'
tRp269
ag11
(g13
S'0\xbbhP.\xbc\x89\xbf'
tRp270
ag11
(g13
S'D\xf8g\xab\xc7\x9d\x91\xbf'
tRp271
ag11
(g13
S't\\\xf9TM\xd3\x96\xbf'
tRp272
ag11
(g13
S'\xbcz\xb8N\xaa\xad\x9b\xbf'
tRp273
ag11
(g13
S'\x12\x95\xbb\xb0\xf0\xbe\xa0\xbf'
tRp274
ag11
(g13
S'\x8aO\xbbS\x9b\xd1\xa3\xbf'
tRp275
ag11
(g13
S'\x80J\x81\xe3=\xec\xa6\xbf'
tRp276
ag11
(g13
S'j\x1azJx!\xaa\xbf'
tRp277
ag11
(g13
S'|E\xd8\x80J\xf8\xac\xbf'
tRp278
ag11
(g13
S'\xf2D\xb6\xc9\x9a~\xaf\xbf'
tRp279
ag11
(g13
S'\xeb\xa7H4G\xdd\xb0\xbf'
tRp280
ag11
(g13
S'\x9dQ\xc3\x1a\n\xe4\xb1\xbf'
tRp281
ag11
(g13
S'w#\xf6\x0c\xa7\xb1\xb2\xbf'
tRp282
ag11
(g13
S'\xbc\xbeR\xb7#d\xb3\xbf'
tRp283
ag11
(g13
S'`\xb1\x1ej1\xbe\xb3\xbf'
tRp284
ag11
(g13
S'\xa0o\xf7\x9e\xcfQ\xb4\xbf'
tRp285
ag11
(g13
S'\x1a\x87\x99({\x9b\xb4\xbf'
tRp286
ag11
(g13
S'=f\xca[\\\xad\xb4\xbf'
tRp287
ag11
(g13
S'\x1e\x88\xbb\x85i\xc2\xb4\xbf'
tRp288
ag11
(g13
S'\xcd0\x11\x0eM\xd0\xb4\xbf'
tRp289
ag11
(g13
S'R\x84\xde\xf9\x8f~\xb4\xbf'
tRp290
ag11
(g13
S'Oug\\\xf1\x1e\xb4\xbf'
tRp291
ag11
(g13
S'\xda[re\xd6o\xb3\xbf'
tRp292
ag11
(g13
S'n\x13\x82$K\x17\xb3\xbf'
tRp293
ag11
(g13
S'\x1b`\xd6Hi\xa8\xb2\xbf'
tRp294
ag11
(g13
S'P\xd5\x9c\x02\xdb\x07\xb2\xbf'
tRp295
ag11
(g13
S'\x9f\xbeM\xd3(b\xb1\xbf'
tRp296
ag11
(g13
S'\xdaS\x04\xf1\xd9\xa8\xb0\xbf'
tRp297
ag11
(g13
S'n\xf6a\xe8$e\xb0\xbf'
tRp298
ag11
(g13
S'WxA\xee\xafX\xb0\xbf'
tRp299
ag11
(g13
S'\xd4\xf0!\xd1\x9bc\xb0\xbf'
tRp300
ag11
(g13
S'g\x15\x05\x82\xe7^\xb0\xbf'
tRp301
ag11
(g13
S'\xf9\x87GN\t\xd5\xb0\xbf'
tRp302
ag11
(g13
S'Y\x8c>\xb1\x1d:\xb1\xbf'
tRp303
ag11
(g13
S'\x9dD\x14\xdf\xb9\xd6\xb1\xbf'
tRp304
ag11
(g13
S'\xf2\xd7\xf6MB\xc5\xb2\xbf'
tRp305
ag11
(g13
S"\x9e'\xd8\xfa+\x92\xb3\xbf"
tRp306
ag11
(g13
S'<\xd6\x04\x98\x95\x85\xb4\xbf'
tRp307
ag11
(g13
S'\xb6R3\xd0\xed\xa3\xb5\xbf'
tRp308
ag11
(g13
S'@\x89Q7T\xe8\xb6\xbf'
tRp309
ag11
(g13
S'n9\xa1\xfd4\x11\xb8\xbf'
tRp310
ag11
(g13
S'\xfb9\x1c\x80\xd01\xb9\xbf'
tRp311
ag11
(g13
S'=\x99\x87\x8c\xbe\x8a\xba\xbf'
tRp312
ag11
(g13
S'vW\xb0\xb4\xcd\x11\xbc\xbf'
tRp313
ag11
(g13
S'\xf9y\xab\xb7\xfek\xbd\xbf'
tRp314
ag11
(g13
S'\xdc\xa1{\xde\xc9\xe4\xbe\xbf'
tRp315
ag11
(g13
S'iI`\xb6\x85&\xc0\xbf'
tRp316
ag11
(g13
S'\xac\x00P7\xca\xbf\xc0\xbf'
tRp317
ag11
(g13
S'\xc0\x02\x18+\xc3\x9d\xc1\xbf'
tRp318
ag11
(g13
S'\xf0\x90\xd1\xa6\xa7X\xc2\xbf'
tRp319
ag11
(g13
S'\x1a\x00,\xec!\xf7\xc2\xbf'
tRp320
ag11
(g13
S'\xb1\xa1\xc1\xec8w\xc3\xbf'
tRp321
ag11
(g13
S'n\xafZ\x89\xed\xf5\xc3\xbf'
tRp322
ag11
(g13
S'\xf3\xf0\xd4\x9b\x14<\xc4\xbf'
tRp323
ag11
(g13
S'\xd9.\x81 Gm\xc4\xbf'
tRp324
ag11
(g13
S'\x0eO%Lyq\xc4\xbf'
tRp325
ag11
(g13
S'O\xb8e&RW\xc4\xbf'
tRp326
ag11
(g13
S'\x84\xdd\xa0\xcd\xb4\x17\xc4\xbf'
tRp327
ag11
(g13
S'\xe2\xcc\xef\x1f\xaa\xe3\xc3\xbf'
tRp328
ag11
(g13
S'\x16KR\xf5>\xcd\xc3\xbf'
tRp329
ag11
(g13
S'\x9f\x01\xfc\xbb/`\xc3\xbf'
tRp330
ag11
(g13
S'\x14\xce\xc5\x9f\x81\r\xc3\xbf'
tRp331
ag11
(g13
S'<(\x1e\xd0\xf6\xc1\xc2\xbf'
tRp332
ag11
(g13
S'\x8cW\xe2\xfeg\x89\xc2\xbf'
tRp333
ag11
(g13
S'\xa1&\x88\x83^C\xc2\xbf'
tRp334
ag11
(g13
S'e3\x11\x8fw\xf3\xc1\xbf'
tRp335
ag11
(g13
S'\x9bW\x02A.\xa9\xc1\xbf'
tRp336
ag11
(g13
S'\xbef\x0bZZR\xc1\xbf'
tRp337
ag11
(g13
S'\x9cI\x10[\xd7\x0e\xc1\xbf'
tRp338
ag11
(g13
S'<\xbd\xd5\x83I\xa9\xc0\xbf'
tRp339
ag11
(g13
S'\x199B\x93\xe4m\xc0\xbf'
tRp340
ag11
(g13
S'\xa0lZ\x9f\xd6?\xc0\xbf'
tRp341
ag11
(g13
S'\x18\x12@J\x19"\xc0\xbf'
tRp342
ag11
(g13
S'<\xea\xc7ZS\t\xc0\xbf'
tRp343
ag11
(g13
S'\xb6%y\x8a( \xc0\xbf'
tRp344
ag11
(g13
S'T\xadJ\x8f\x18\x07\xc0\xbf'
tRp345
ag11
(g13
S'\x0eh\x1d\x83\xa6\x0e\xc0\xbf'
tRp346
ag11
(g13
S'\xee\xbc\x85 \r3\xc0\xbf'
tRp347
ag11
(g13
S'\xc2r@&&\xa1\xbf\xbf'
tRp348
ag11
(g13
S'\xf0B\x19d\xa6`\xbf\xbf'
tRp349
ag11
(g13
S'\x953\x89\x84L\xca\xbe\xbf'
tRp350
ag11
(g13
S'r\xc3|i\x00\xe7\xbd\xbf'
tRp351
ag11
(g13
S'0\xf3\xc6\xe233\xbe\xbf'
tRp352
ag11
(g13
S'\xac\x0fe\xed+\xb4\xbf\xbf'
tRp353
ag11
(g13
S'\x03Q\x82Q\xbf>\xbe\xbf'
tRp354
ag11
(g13
S'\x90D\xd5k\xdav\xbf\xbf'
tRp355
ag11
(g13
S'\xaf\xab\x16\x8cIb\xbf\xbf'
tRp356
ag11
(g13
S'\xdbu\xa7\xb9\xc6\xd1\xc0\xbf'
tRp357
ag11
(g13
S'J\xccQs\xebF\xc1\xbf'
tRp358
ag11
(g13
S'N+\xa6d\x88\xa0\xc2\xbf'
tRp359
ag11
(g13
S'\xe6\x13\x8b\x18^\x83\xc4\xbf'
tRp360
ag11
(g13
S'pX\xc5m\xaa\xcf\xc4\xbf'
tRp361
ag11
(g13
S'\x05b\x10\rt\x8b\xc6\xbf'
tRp362
ag11
(g13
S'\x02"\xe65\x8b/\xc6\xbf'
tRp363
ag11
(g13
S'\xc00\xda\xcbK\x9b\xc6\xbf'
tRp364
ag11
(g13
S'\x87p\x81\x97\x00G\xc7\xbf'
tRp365
ag11
(g13
S'\x02\xe4l\x1d%i\xc8\xbf'
tRp366
ag11
(g13
S'J\xeeg\xdfN\xef\xc8\xbf'
tRp367
ag11
(g13
S'N\xc4\xeab\xe0\xca\xc8\xbf'
tRp368
ag11
(g13
S'\x87\xc2\x07\x83h{\xc8\xbf'
tRp369
ag11
(g13
S'\xde*^\xb7\xc2\xa4\xc7\xbf'
tRp370
ag11
(g13
S'\xad\xae?\x7f\xd1\x9b\xc6\xbf'
tRp371
ag11
(g13
S'\xc4%\x04H\x95k\xc5\xbf'
tRp372
ag11
(g13
S'\xae\xc8\x8f\x8c\xc2\x96\xc3\xbf'
tRp373
ag11
(g13
S',\r\xae\x98\xb2z\xc1\xbf'
tRp374
ag11
(g13
S'h\xfdz\t@\xfd\xbf\xbf'
tRp375
ag11
(g13
S'\xbf\x9b]D\n\x85\xbb\xbf'
tRp376
ag11
(g13
S'q\xee\xd9\x87W^\xb7\xbf'
tRp377
ag11
(g13
S'\xd6\x1e\r-\x1a\x08\xb5\xbf'
tRp378
ag11
(g13
S'Tq\xf7\xd4\x90\x81\xb4\xbf'
tRp379
ag11
(g13
S'\x18XS=\xe2\xc6\xb4\xbf'
tRp380
ag11
(g13
S'\xe1\xe5Q\xe2\xadh\xb6\xbf'
tRp381
ag11
(g13
S'\xec\xef`\x98?j\xb5\xbf'
tRp382
ag11
(g13
S'\xb1\x0e\x91\xbf\x1e\xe0\xb6\xbf'
tRp383
ag11
(g13
S'\xcb\xa5\x16.\x1a\xac\xb7\xbf'
tRp384
ag11
(g13
S'\x98\xbbL\x9ar\xf5\xba\xbf'
tRp385
ag11
(g13
S'\xaag\xbf\x7fq\xed\xbe\xbf'
tRp386
ag11
(g13
S'(d\xa4YjD\xc1\xbf'
tRp387
ag11
(g13
S'Su<\xe5T\xde\xc3\xbf'
tRp388
ag11
(g13
S'\x87\xeeM\xcb\x8dw\xc6\xbf'
tRp389
ag11
(g13
S'Z\xce\x8d0U\xc4\xc8\xbf'
tRp390
ag11
(g13
S'\r\xe6\x85\x82\x8c\xd0\xca\xbf'
tRp391
ag11
(g13
S'\xff\x16k%F\xa2\xcc\xbf'
tRp392
ag11
(g13
S'\x14\xbdAU\xcc\xbe\xcd\xbf'
tRp393
ag11
(g13
S'\xe9<h\x19G\x9b\xce\xbf'
tRp394
ag11
(g13
S'\xc1\x8bk\xb9\x84\xd6\xce\xbf'
tRp395
ag11
(g13
S'\xa19\x9d>3\x81\xce\xbf'
tRp396
ag11
(g13
S'\x0f\xe5|\xa7\xf8k\xcd\xbf'
tRp397
ag11
(g13
S'\xa2\r\xc3\xd3\xa2]\xcc\xbf'
tRp398
ag11
(g13
S'\xa8\xce\x8e\xaf\x88\xc9\xca\xbf'
tRp399
ag11
(g13
S'\x11|\x0f\xb9\x91I\xc9\xbf'
tRp400
ag11
(g13
S'\xe7\xba\x96TG9\xc7\xbf'
tRp401
ag11
(g13
S'\x9e\xa0\x9d\xde\xbe,\xc5\xbf'
tRp402
ag11
(g13
S'qu\x9a\xa6_\xd1\xc3\xbf'
tRp403
ag11
(g13
S'\x18\xe9\xa2\x16z\xcc\xc1\xbf'
tRp404
ag11
(g13
S'8\x1cM_:g\xc0\xbf'
tRp405
ag11
(g13
S'\xe4\xbb,\xf4\x0e@\xbe\xbf'
tRp406
ag11
(g13
S'\xac\x9a\x85\xf2X\xa4\xbc\xbf'
tRp407
ag11
(g13
S'\x18\xde\xc4\xf1\xab\x99\xbb\xbf'
tRp408
ag11
(g13
S'b\xa0\x11\xf06\xdc\xba\xbf'
tRp409
ag11
(g13
S'\x9e\xdf\xed\xca6R\xba\xbf'
tRp410
ag11
(g13
S'2i\x04\xd1&_\xba\xbf'
tRp411
ag11
(g13
S'\x91\xe0\x13\xa96\x84\xba\xbf'
tRp412
ag11
(g13
S'&\xd3*Y\xde\xe4\xba\xbf'
tRp413
ag11
(g13
S'3b\xa2!g}\xbb\xbf'
tRp414
ag11
(g13
S'nM\x92\x87s\xef\xbb\xbf'
tRp415
ag11
(g13
S'pQ=\xa9T\xbd\xbc\xbf'
tRp416
ag11
(g13
S'\x04\xc3>6\xa7\xbc\xbd\xbf'
tRp417
ag11
(g13
S'\n$\xac\xdb\r\xcd\xbe\xbf'
tRp418
ag11
(g13
S'\x9de\x1a.\xe4\xa1\xbf\xbf'
tRp419
ag11
(g13
S'\x1d\x03\xf5\xd32s\xc0\xbf'
tRp420
ag11
(g13
S'Zm\x9bh&\xc3\xc0\xbf'
tRp421
ag11
(g13
S't\xb4\xb8\xc6\xed\x84\xc1\xbf'
tRp422
ag11
(g13
S'tg5\xca\xa9&\xc2\xbf'
tRp423
ag11
(g13
S'\xbeK4\x9a\x00Y\xc2\xbf'
tRp424
ag11
(g13
S'\xbc\xbf(\xa7\x1d\xd7\xc2\xbf'
tRp425
ag11
(g13
S'\x89%\x84\x9c\x9c \xc3\xbf'
tRp426
ag11
(g13
S'\x17X\xc4\x91\x90T\xc3\xbf'
tRp427
ag11
(g13
S'\xd8W\x8c\x01\x16}\xc3\xbf'
tRp428
ag11
(g13
S'\xe8\xc6\xd7\xf7\x0ba\xc3\xbf'
tRp429
ag11
(g13
S'i\xc5\xbbM7U\xc3\xbf'
tRp430
ag11
(g13
S'\xf7\x8e/\xf03\x08\xc3\xbf'
tRp431
ag11
(g13
S'9g\xa8\xd6\x1d\x89\xc2\xbf'
tRp432
ag11
(g13
S'A\x94\x1e3\x88\xb7\xc1\xbf'
tRp433
ag11
(g13
S's\xe4\xe6\xe4\xac\xc4\xc0\xbf'
tRp434
ag11
(g13
S'\xdd3\xbab\x03I\xbf\xbf'
tRp435
ag11
(g13
S'\xba\xbfYD#\xc3\xbc\xbf'
tRp436
ag11
(g13
S'\x9f\xe5\xeb\x0ee>\xba\xbf'
tRp437
ag11
(g13
S'\x896o\x80\x04\xf8\xb7\xbf'
tRp438
ag11
(g13
S'\xc3w\xcd\x8b\xc9|\xb5\xbf'
tRp439
ag11
(g13
S'(\x96\xbd\xc59q\xb3\xbf'
tRp440
ag11
(g13
S'\x84\xb9\xa0X\xd5\xbd\xb1\xbf'
tRp441
ag11
(g13
S'\xa2\x1bl\x84\x96\xf8\xb0\xbf'
tRp442
ag11
(g13
S'$\xe4:\xc4\xd8D\xb0\xbf'
tRp443
ag11
(g13
S'\xeb\xe7%\xde\xd0*\xb0\xbf'
tRp444
ag11
(g13
S'\x93\xe7\xbb\xb2\x83\xa7\xb0\xbf'
tRp445
ag11
(g13
S'\xaa\xae(q\x86j\xb1\xbf'
tRp446
ag11
(g13
S'\xaatA\xfb\x1d\x92\xb2\xbf'
tRp447
ag11
(g13
S'\x00S!f\xb6\xdc\xb3\xbf'
tRp448
ag11
(g13
S'\xfe\xfc\xce]|\x1c\xb5\xbf'
tRp449
ag11
(g13
S'\xb7\xf5\x93_\xdf\xb4\xb6\xbf'
tRp450
ag11
(g13
S'\x07\xbb\xf7\x99\x18\x13\xb8\xbf'
tRp451
ag11
(g13
S'##`\xd7\xa9v\xb9\xbf'
tRp452
ag11
(g13
S'\x9bZ\xfe\x85\xc0\x99\xba\xbf'
tRp453
ag11
(g13
S'\xc5\xd5|F@p\xbb\xbf'
tRp454
ag11
(g13
S'\x1aE\x1fE\xf8\t\xbc\xbf'
tRp455
ag11
(g13
S'>\x9aj\x16\xcc\xce\xbc\xbf'
tRp456
ag11
(g13
S'\x9bd\xba\x91\xecL\xbd\xbf'
tRp457
ag11
(g13
S'\r\xce\x8d\xbf)\xa3\xbd\xbf'
tRp458
ag11
(g13
S"b\xb6'\xd1\x9a\x8a\xbd\xbf"
tRp459
ag11
(g13
S'>\x89m\x95\x08]\xbd\xbf'
tRp460
ag11
(g13
S'\x06\xcf1\x14lU\xbd\xbf'
tRp461
ag11
(g13
S'\x80V\x05\xb5\xa4F\xbd\xbf'
tRp462
ag11
(g13
S'\xdf\x82F\x03}\xbd\xbc\xbf'
tRp463
ag11
(g13
S'!\xd6\xcb\xc3kE\xbc\xbf'
tRp464
ag11
(g13
S'\x0evE\xaa\xfc\xd1\xbb\xbf'
tRp465
ag11
(g13
S'd\x13\x0c\xe3\xc1E\xbb\xbf'
tRp466
ag11
(g13
S'\x9cG&e\xe8s\xba\xbf'
tRp467
ag11
(g13
S'}\xf6K\xda\x84\x80\xb9\xbf'
tRp468
ag11
(g13
S'\xaa\xe8\xd2\xde\x99[\xb8\xbf'
tRp469
ag11
(g13
S'\x8a\xb9~?\x1d%\xb7\xbf'
tRp470
ag11
(g13
S'\nk\xe5\xf6\x83\x92\xb5\xbf'
tRp471
ag11
(g13
S'Oc\xfe1\x18\xab\xb3\xbf'
tRp472
ag11
(g13
S'\xfc\xe9zS\x1b\xa7\xb1\xbf'
tRp473
ag11
(g13
S'\xe0;~|\x87C\xaf\xbf'
tRp474
ag11
(g13
S'\x12\x18\xc7\xca\x87%\xab\xbf'
tRp475
ag11
(g13
S'\xa4\xae\x9f\t\x1c\xdd\xa7\xbf'
tRp476
ag11
(g13
S'\xb4\t\x93\xfe\x8f\x04\xa4\xbf'
tRp477
ag11
(g13
S'(#\xa2\xa8c7\xa1\xbf'
tRp478
ag11
(g13
S"\xc8-[\xb5'\x8e\x9e\xbf"
tRp479
ag11
(g13
S'd>0\xf7\x14\x12\x9c\xbf'
tRp480
ag11
(g13
S'p\x08\xd66-\xcc\x9b\xbf'
tRp481
ag11
(g13
S'ls\x15\xb5\xa2\xe0\x9b\xbf'
tRp482
ag11
(g13
S'\x90*5I\xfc#\x9e\xbf'
tRp483
ag11
(g13
S'\x0c}\xeeoU\xdc\xa0\xbf'
tRp484
ag11
(g13
S'\xe4\x9bz\x80F\xc1\xa2\xbf'
tRp485
ag11
(g13
S'\xfb\xe6\x06i_\xd4\xa4\xbf'
tRp486
ag11
(g13
S'&{\x90\x82\x13\x1a\xa7\xbf'
tRp487
ag11
(g13
S'\xf6\x93\x91\xd1\x84\xa4\xa8\xbf'
tRp488
ag11
(g13
S'\xa7u\x0f\x19}a\xaa\xbf'
tRp489
ag11
(g13
S'\x16!\x08\x06\xa8\xec\xab\xbf'
tRp490
ag11
(g13
S'!G\x94\xc4\xda\x8a\xac\xbf'
tRp491
ag11
(g13
S'\x1e \xb1& /\xad\xbf'
tRp492
ag11
(g13
S'\x8cY\xc2y6\xa2\xad\xbf'
tRp493
ag11
(g13
S'\x92M\xd6\xdf\xad\x9c\xae\xbf'
tRp494
ag11
(g13
S'\xe2\x84\x85\xd8J\xd6\xac\xbf'
tRp495
ag11
(g13
S'\x92\xe7u\xecBZ\xab\xbf'
tRp496
ag11
(g13
S"u\xe1'>\x08\xf1\xa9\xbf"
tRp497
ag11
(g13
S'\x95KtuE.\xa8\xbf'
tRp498
ag11
(g13
S'\x9e\x06\x90[\xbf\xcb\xa5\xbf'
tRp499
ag11
(g13
S'\x02v)\x86R+\xa3\xbf'
tRp500
ag11
(g13
S"\xa0$\xf4\x06\xbf'\xa0\xbf"
tRp501
ag11
(g13
S'\xc8!\x03P\xf0\xd5\x99\xbf'
tRp502
ag11
(g13
S'\x88\xc5\xaa6\xbe\x08\x93\xbf'
tRp503
ag11
(g13
S'\xd8\x155p\xdc\xbd\x87\xbf'
tRp504
ag11
(g13
S'\xd0_\xc9\xf8\xd4fv\xbf'
tRp505
ag11
(g13
S'\x00\x00<q%\xc9\xe7\xbe'
tRp506
ag11
(g13
S'\xa0\xb4[\xc6\xb6\x12q?'
tRp507
ag11
(g13
S'\x005\xba;#\xb3~?'
tRp508
ag11
(g13
S'\x986GL\x16\xc8\x81?'
tRp509
ag11
(g13
S'0S\x1e\xc2u\xdb\x81?'
tRp510
ag11
(g13
S'(\x19\x9f\x19\xe0B\x80?'
tRp511
ag11
(g13
S'@:\xe2\xf6\xee\xc2v?'
tRp512
ag11
(g13
S'`\xd9gT\xb2Uf?'
tRp513
ag11
(g13
S'@D\x97\xec\xb7\xd8S\xbf'
tRp514
aasS'vel'
p515
(lp516
(lp517
F-0.0016391867399215699
aF0.0010566505193710326
aF0.01252724838256836
aF0.011714934349060058
aF0.011273434638977051
aF0.011144356727600098
aF0.011165726661682128
aF0.011362944602966309
aF0.012057665824890137
aF0.012101925849914551
aF0.012540058135986328
aF0.013045219421386719
aF0.013550065040588378
aF0.013997643470764161
aF0.014487006187438966
aF0.014990143775939942
aF0.015340810775756835
aF0.01600064468383789
aF0.016040996551513673
aF0.016406122207641601
aF0.016751169204711914
aF0.017076885223388672
aF0.017418848037719727
aF0.017706480026245117
aF0.018008392333984376
aF0.018260133743286132
aF0.018497709274291993
aF0.018719215393066407
aF0.019105865478515626
aF0.01929465675354004
aF0.019460451126098632
aF0.019634822845458984
aF0.01977332305908203
aF0.019899604797363281
aF0.020024532318115233
aF0.020130958557128906
aF0.020224138259887694
aF0.020311120986938477
aF0.020392225265502929
aF0.020485067367553712
aF0.020514396667480467
aF0.019837621688842774
aF0.018403057098388673
aF0.016183912277221681
aF0.01326176643371582
aF0.0076020612716674804
aF0.0048788833618164064
aF-0.00069849449396133421
aF-0.0072165350914001466
aF-0.014563475608825684
aF-0.022734487533569336
aF-0.031661645889282226
aF-0.041286396026611327
aF-0.051630691528320311
aF-0.06402298736572265
aF-0.078343559265136725
aF-0.093516105651855475
aF-0.11016398620605469
aF-0.12760281372070312
aF-0.14702923583984376
aF-0.16780007934570312
aF-0.1891654815673828
aF-0.21209443664550781
aF-0.23671617126464845
aF-0.27088232421875003
aF-0.28735882568359378
aF-0.31360260009765623
aF-0.33886370849609376
aF-0.36052667236328123
aF-0.37723513793945312
aF-0.38999838256835939
aF-0.39857449340820311
aF-0.40347607421874998
aF-0.40522787475585936
aF-0.40408224487304689
aF-0.40027340698242186
aF-0.39418334960937501
aF-0.38577163696289063
aF-0.37769009399414061
aF-0.36822207641601562
aF-0.35754440307617186
aF-0.34640097045898438
aF-0.33438958740234376
aF-0.3126736755371094
aF-0.30831002807617186
aF-0.29595703125
aF-0.28260092163085937
aF-0.27103256225585937
aF-0.26072714233398436
aF-0.25158406066894529
aF-0.24593028259277344
aF-0.2410794219970703
aF-0.23808602905273438
aF-0.2368212127685547
aF-0.23730326843261718
aF-0.24065208435058594
aF-0.24344648742675781
aF-0.24903100585937499
aF-0.25929803466796875
aF-0.26417230224609373
aF-0.2740819091796875
aF-0.28502191162109375
aF-0.29566073608398435
aF-0.30388912963867187
aF-0.30966326904296876
aF-0.31286413574218752
aF-0.31369692993164061
aF-0.31232196044921873
aF-0.3091028747558594
aF-0.30345590209960938
aF-0.29681011962890624
aF-0.28841561889648437
aF-0.27878961181640627
aF-0.26896939086914062
aF-0.25974563598632811
aF-0.25218193054199217
aF-0.24702769470214844
aF-0.244118408203125
aF-0.24316828918457031
aF-0.24408078002929687
aF-0.24655700683593751
aF-0.25076905822753909
aF-0.25588821411132812
aF-0.26122863769531252
aF-0.2660534362792969
aF-0.27040054321289064
aF-0.27376107788085935
aF-0.27543334960937499
aF-0.27544134521484376
aF-0.27160433959960939
aF-0.26998107910156249
aF-0.26447103881835937
aF-0.25849053955078127
aF-0.25113887023925779
aF-0.24372593688964844
aF-0.23644674682617187
aF-0.22997134399414063
aF-0.22498347473144531
aF-0.22211970520019531
aF-0.22099525451660157
aF-0.22170103454589843
aF-0.22415818786621095
aF-0.22752870178222656
aF-0.23190353393554688
aF-0.23726637268066406
aF-0.23910342407226562
aF-0.24072087097167968
aF-0.24078163146972656
aF-0.23915211486816407
aF-0.235291748046875
aF-0.23043283081054688
aF-0.22388841247558594
aF-0.2174423828125
aF-0.21090081787109374
aF-0.20490483093261719
aF-0.19950186157226563
aF-0.1951868438720703
aF-0.19264991760253905
aF-0.19135722351074219
aF-0.19253865051269531
aF-0.19281883239746095
aF-0.19466734313964842
aF-0.19659014892578125
aF-0.19812768554687499
aF-0.19884609985351562
aF-0.19892750549316407
aF-0.19807504272460938
aF-0.19558094787597657
aF-0.19235121154785156
aF-0.18844931030273437
aF-0.18004286193847657
aF-0.17789122009277344
aF-0.17244290161132814
aF-0.16645343017578124
aF-0.16140350341796875
aF-0.1574283905029297
aF-0.15411824035644531
aF-0.15201296997070313
aF-0.1508308563232422
aF-0.1505513916015625
aF-0.15119145202636719
aF-0.15212683105468749
aF-0.15312603759765625
aF-0.15389216613769532
aF-0.15380642700195313
aF-0.15308477783203125
aF-0.15173211669921874
aF-0.14929312133789063
aF-0.14554792785644532
aF-0.13932687377929687
aF-0.13362667846679688
aF-0.12771801757812501
aF-0.12211473083496094
aF-0.11881095123291016
aF-0.11416218566894532
aF-0.10993072509765625
aF-0.10503636932373046
aF-0.10386638641357422
aF-0.10166805267333984
aF-0.10028189849853515
aF-0.098915504455566405
aF-0.098667152404785158
aF-0.097828010559082038
aF-0.097565849304199218
aF-0.09529255676269531
aF-0.09529255676269531
aF-0.093635879516601558
aF-0.090901969909667965
aF-0.087317565917968756
aF-0.082682182312011715
aF-0.075865272521972657
aF-0.069081634521484372
aF-0.069081634521484372
aF-0.063893703460693355
aF-0.056973754882812498
aF-0.054715629577636718
aF-0.050691410064697268
aF-0.046838294982910159
aF-0.043806522369384766
aF-0.040887359619140626
aF-0.040264366149902343
aF-0.039644775390624998
aF-0.039874732971191408
aF-0.040268775939941409
aF-0.039900264739990234
aF-0.039416564941406253
aF-0.037602535247802736
aF-0.034234645843505856
aF-0.030365871429443358
aF-0.025977323532104492
aF-0.020930774688720705
aF-0.015321890830993652
aF-0.0097447996139526372
aF-0.0034067180156707763
aF0.002722165584564209
aF0.0071072626113891603
aF0.012270283699035645
aF0.013134846687316895
aF0.014793062210083007
aF0.015165433883666993
aF0.015447713851928712
aF0.015447452545166015
aF0.015660079956054687
aF0.015891229629516602
aF0.016960929870605469
aF0.020008722305297853
aF0.021440698623657228
aF0.027580394744873046
aF0.029502899169921874
aF0.037397464752197268
aF0.03953060150146484
aF0.04528024673461914
aF0.057961444854736331
aF0.057961444854736331
aF0.060352401733398439
aF0.067066383361816403
aF0.068965995788574222
aF0.071802322387695308
aF0.073916130065917962
aF0.074583900451660162
aF0.0742780532836914
aF0.073486946105957032
aF0.07337391662597656
aF0.07337278747558594
aF0.074438827514648434
aF0.080616386413574215
aF0.080616386413574215
aF0.082448364257812504
aF0.086504562377929681
aF0.090666633605957031
aF0.095233238220214844
aF0.10065930938720703
aF0.10715987396240234
aF0.10835649871826172
aF0.112172119140625
aF0.11512654876708985
aF0.11785969543457031
aF0.11994139862060547
aF0.12223610687255859
aF0.12307010650634766
aF0.12434704589843749
aF0.12524464416503905
aF0.12574814605712892
aF0.12690585327148438
aF0.12749537658691407
aF0.12926486206054688
aF0.13118885803222657
aF0.13384213256835936
aF0.13711756896972657
aF0.14028022766113282
aF0.14346856689453125
aF0.14659706115722657
aF0.14999316406249999
aF0.15540911865234375
aF0.15671612548828126
aF0.1591480712890625
aF0.16156007385253907
aF0.16349111938476563
aF0.16505474853515625
aF0.16626933288574219
aF0.16663916015624999
aF0.16732609558105468
aF0.16813693237304689
aF0.1701705780029297
aF0.17110968017578124
aF0.1727716827392578
aF0.17449481201171874
aF0.17602981567382814
aF0.17831417846679687
aF0.18047404479980469
aF0.18285372924804688
aF0.1853873291015625
aF0.18825515747070312
aF0.190768798828125
aF0.19332824707031249
aF0.19570480346679686
aF0.19733395385742186
aF0.19851829528808593
aF0.19926365661621093
aF0.20015673828125
aF0.20081959533691407
aF0.20173588562011718
aF0.20233799743652345
aF0.20266006469726563
aF0.20306024169921874
aF0.20376176452636718
aF0.20460047912597656
aF0.20577684020996093
aF0.20729260253906251
aF0.20888902282714844
aF0.21077566528320313
aF0.21217567443847657
aF0.21369367980957032
aF0.21581219482421876
aF0.2171830596923828
aF0.21806919860839843
aF0.21987608337402345
aF0.22112863159179688
aF0.22112863159179688
aF0.22115724182128907
aF0.22105712890625001
aF0.22116947937011719
aF0.22128250122070312
aF0.22193043518066408
aF0.22311416625976563
aF0.22411973571777344
aF0.22553398132324218
aF0.2271822509765625
aF0.22892027282714844
aF0.23065853881835938
aF0.23226084899902344
aF0.23362329101562501
aF0.23374713134765626
aF0.23262899780273438
aF0.23180111694335936
aF0.23036393737792968
aF0.2286236572265625
aF0.22715507507324217
aF0.22569973754882813
aF0.22417936706542968
aF0.22301261901855468
aF0.22225331115722657
aF0.22226280212402344
aF0.22334449768066406
aF0.22371441650390625
aF0.22393072509765624
aF0.22422773742675781
aF0.22428167724609374
aF0.22540802001953125
aF0.22592591857910158
aF0.22684349060058595
aF0.22926748657226562
aF0.23045352172851563
aF0.23112084960937501
aF0.2311916961669922
aF0.23084516906738281
aF0.2295026092529297
aF0.22673994445800782
aF0.22353175354003907
aF0.21952638244628905
aF0.21799092102050782
aF0.21551707458496094
aF0.2138413543701172
aF0.21249125671386718
aF0.21181602478027345
aF0.21148992919921875
aF0.21128921508789061
aF0.21097062683105469
aF0.21073719787597656
aF0.21067794799804687
aF0.21012211608886719
aF0.20993914794921875
aF0.20931745910644531
aF0.20847413635253906
aF0.20785304260253906
aF0.20642559814453126
aF0.20479133605957031
aF0.20189585876464844
aF0.20099855041503906
aF0.19890483093261718
aF0.19677217102050781
aF0.19470672607421874
aF0.19322756958007811
aF0.19138088989257812
aF0.18928276062011717
aF0.18615325927734375
aF0.18542761230468749
aF0.18223565673828124
aF0.180311767578125
aF0.17985855102539061
aF0.17787934875488282
aF0.17734323120117187
aF0.17644227600097656
aF0.17522080993652345
aF0.17462336730957032
aF0.17339134216308594
aF0.17198336791992189
aF0.17051844787597656
aF0.16902481079101561
aF0.16727449035644532
aF0.16479513549804686
aF0.16217408752441406
aF0.15944644165039062
aF0.15679574584960937
aF0.15415365600585937
aF0.15150787353515624
aF0.15055522155761719
aF0.14666043090820313
aF0.14443138122558594
aF0.14240393066406251
aF0.14073474121093749
aF0.13899591064453126
aF0.13704338073730468
aF0.13540666198730469
aF0.1335929718017578
aF0.13166510009765625
aF0.1294322052001953
aF0.12684420776367186
aF0.12403230285644531
aF0.12129740905761718
aF0.11843259429931641
aF0.11527108764648437
aF0.11243805694580078
aF0.10915895080566407
aF0.10608258819580078
aF0.10282771301269532
aF0.099391563415527337
aF0.097788131713867188
aF0.095510047912597651
aF0.093865783691406246
aF0.092130073547363286
aF0.09051616668701172
aF0.089076919555664061
aF0.087648185729980468
aF0.086081199645996087
aF0.08353575134277344
aF0.080496917724609374
aF0.077041069030761716
aF0.075407051086425786
aF0.069725524902343752
aF0.065368972778320308
aF0.060989467620849606
aF0.05912815856933594
aF0.053583904266357424
aF0.050559226989746096
aF0.048219932556152346
aF0.046502521514892578
aF0.04506407928466797
aF0.043689098358154294
aF0.042425056457519532
aF0.040670539855957033
aF0.038969135284423827
aF0.037142238616943359
aF0.034479598999023441
aF0.031577695846557619
aF0.027987228393554688
aF0.024222410202026368
aF0.020378841400146484
aF0.016300582885742189
aF0.0080879335403442384
aF0.0080879335403442384
aF0.0047859129905700685
aF0.001832211136817932
aF-0.0013864965438842773
aF-0.0037717270851135255
aF-0.0065571050643920895
aF-0.0090003805160522466
aF-0.011135073661804199
aF-0.012941548347473145
aF-0.015348001480102539
aF-0.018052827835083007
aF-0.021215286254882813
aF-0.023951738357543946
aF-0.028276107788085938
aF-0.03005705451965332
aF-0.032829143524169921
aF-0.035952739715576172
aF-0.038517211914062502
aF-0.04139365005493164
aF-0.044812984466552734
aF-0.047994400024414061
aa(lp518
F4.8351212171837683e-07
aF5.8324998244643213e-06
aF4.0751574560999874e-06
aF-5.2812155336141589e-06
aF-5.0974667072296141e-05
aF-0.00024114929139614104
aF-0.00026974380016326905
aF-0.00045758980512619016
aF-0.0010193111896514893
aF-0.0010509228706359864
aF-0.0014192789793014526
aF-0.0018745415210723877
aF-0.0023655738830566406
aF-0.0028361876010894777
aF-0.0033956756591796873
aF-0.0040278968811035152
aF-0.0045025629997253415
aF-0.0055095682144165039
aF-0.00556568717956543
aF-0.0061816940307617184
aF-0.0068007588386535646
aF-0.0074237203598022461
aF-0.0081168212890624994
aF-0.0087292623519897462
aF-0.0094115772247314461
aF-0.010014227867126465
aF-0.010617436408996582
aF-0.011215520858764648
aF-0.012379841804504394
aF-0.01297647476196289
aF-0.01352913475036621
aF-0.014164546966552734
aF-0.01469283390045166
aF-0.01520081901550293
aF-0.015729999542236327
aF-0.016217044830322266
aF-0.016672313690185545
aF-0.017126541137695312
aF-0.017575838088989257
aF-0.018051773071289062
aF-0.019247911453247071
aF-0.018989715576171875
aF-0.017921432495117188
aF-0.016082143783569335
aF-0.013386263847351074
aF-0.0081286735534667962
aF-0.0053363199234008792
aF0.00013589042425155639
aF0.0066728162765502929
aF0.014170248985290528
aF0.022670978546142577
aF0.032097007751464846
aF0.042294754028320315
aF0.053269424438476563
aF0.066473129272460935
aF0.081470703125000002
aF0.098277114868164067
aF0.11604974365234375
aF0.13499667358398437
aF0.15596748352050782
aF0.17835008239746095
aF0.20164927673339844
aF0.22698382568359374
aF0.25325509643554689
aF0.28837191772460935
aF0.30456085205078126
aF0.32825714111328125
aF0.34900659179687499
aF0.36548602294921873
aF0.37724465942382812
aF0.38561538696289061
aF0.3905638122558594
aF0.39289642333984376
aF0.39204382324218751
aF0.38857537841796874
aF0.38360119628906247
aF0.37658248901367186
aF0.36827981567382811
aF0.35811614990234375
aF0.34705645751953124
aF0.3356629943847656
aF0.32311029052734375
aF0.31013360595703127
aF0.29035974121093749
aF0.28618392944335935
aF0.27405111694335937
aF0.26317153930664061
aF0.25240097045898435
aF0.24182138061523437
aF0.23077947998046874
aF0.22209797668457032
aF0.21304763793945314
aF0.204728515625
aF0.19719711303710938
aF0.19027566528320314
aF0.18234237670898437
aF0.17901319885253905
aF0.17386961364746092
aF0.16832119750976562
aF0.1663292236328125
aF0.16349969482421875
aF0.16071148681640626
aF0.15885894775390624
aF0.15683483886718749
aF0.15450866699218749
aF0.15178459167480468
aF0.14904307556152344
aF0.14562466430664062
aF0.14243565368652344
aF0.13894987487792967
aF0.13556547546386719
aF0.13132608032226561
aF0.12715184783935546
aF0.12240229797363281
aF0.11705009460449219
aF0.11196424865722657
aF0.10630500030517578
aF0.10035134887695313
aF0.094681091308593757
aF0.089181564331054688
aF0.084078956604003913
aF0.078025032043457038
aF0.072599555969238283
aF0.067366401672363282
aF0.062296482086181638
aF0.057401283264160156
aF0.052418182373046872
aF0.047638603210449222
aF0.042487556457519532
aF0.034186435699462892
aF0.032127449035644531
aF0.027128070831298829
aF0.022496374130249023
aF0.017418947219848633
aF0.01255690860748291
aF0.0079985938072204589
aF0.0026264650821685789
aF-0.002261038064956665
aF-0.0065434980392456051
aF-0.010623417854309081
aF-0.014949618339538574
aF-0.019383049011230467
aF-0.023312891006469726
aF-0.027984220504760741
aF-0.03406930160522461
aF-0.037031925201416016
aF-0.041577854156494141
aF-0.04582240295410156
aF-0.050072834014892577
aF-0.054974510192871091
aF-0.059364688873291015
aF-0.064464782714843752
aF-0.068854225158691412
aF-0.073662017822265627
aF-0.077991798400878901
aF-0.082726440429687506
aF-0.087442596435546874
aF-0.091648574829101562
aF-0.096060935974121089
aF-0.10445321655273437
aF-0.10503084564208984
aF-0.10972637939453125
aF-0.11393013000488281
aF-0.1179673843383789
aF-0.12193731689453124
aF-0.12591154479980468
aF-0.130533203125
aF-0.13516647338867188
aF-0.1392858123779297
aF-0.14315502929687501
aF-0.15003715515136717
aF-0.15173657226562501
aF-0.15564686584472656
aF-0.15992764282226563
aF-0.16386738586425781
aF-0.16752815246582031
aF-0.17136737060546875
aF-0.17495269775390626
aF-0.17845367431640624
aF-0.18175238037109376
aF-0.1850082550048828
aF-0.18814820861816406
aF-0.19100993347167969
aF-0.19379312133789062
aF-0.1972856903076172
aF-0.20016238403320313
aF-0.20235276794433593
aF-0.20509770202636718
aF-0.20764874267578126
aF-0.21080546569824218
aF-0.21308016967773438
aF-0.21505917358398438
aF-0.21715728759765626
aF-0.21842176818847656
aF-0.22060801696777343
aF-0.22278273010253907
aF-0.22644776916503906
aF-0.22788623046875001
aF-0.23090219116210939
aF-0.23386813354492186
aF-0.23868916320800782
aF-0.24083450317382812
aF-0.24613973999023436
aF-0.24732186889648439
aF-0.25365202331542969
aF-0.25365202331542969
aF-0.25635534667968751
aF-0.25939318847656251
aF-0.26290011596679685
aF-0.26669537353515627
aF-0.27166616821289064
aF-0.27561489868164063
aF-0.27561489868164063
aF-0.2781807861328125
aF-0.28119418334960938
aF-0.28235617065429686
aF-0.28415814208984375
aF-0.28588150024414061
aF-0.28727734375000002
aF-0.28945144653320315
aF-0.29034552001953123
aF-0.29154235839843751
aF-0.29302343749999998
aF-0.29441375732421876
aF-0.29604785156250002
aF-0.29673837280273435
aF-0.297800048828125
aF-0.29872848510742189
aF-0.29985968017578124
aF-0.30099468994140627
aF-0.3020241394042969
aF-0.30327493286132812
aF-0.30437268066406248
aF-0.30507052612304686
aF-0.30611227416992187
aF-0.30759643554687499
aF-0.30963577270507814
aF-0.31029760742187501
aF-0.31175488281250002
aF-0.31291540527343747
aF-0.31438873291015623
aF-0.3148979797363281
aF-0.31606298828125001
aF-0.31776831054687499
aF-0.31882119750976562
aF-0.3202962951660156
aF-0.32039050292968752
aF-0.32095437622070311
aF-0.3212432861328125
aF-0.32073937988281248
aF-0.32082672119140626
aF-0.32061410522460937
aF-0.32014578247070313
aF-0.32014578247070313
aF-0.31966726684570312
aF-0.31963000488281251
aF-0.31980291748046874
aF-0.31984133911132812
aF-0.32036819458007815
aF-0.32052130126953127
aF-0.32040246582031251
aF-0.32036273193359377
aF-0.32036843872070314
aF-0.32022030639648436
aF-0.31966275024414065
aF-0.3171941223144531
aF-0.3171941223144531
aF-0.31660354614257813
aF-0.31488229370117188
aF-0.31358013916015626
aF-0.31214270019531248
aF-0.31022445678710936
aF-0.30726959228515627
aF-0.30650073242187498
aF-0.30396438598632813
aF-0.30181158447265627
aF-0.29945501708984373
aF-0.2977002258300781
aF-0.29563491821289062
aF-0.29471380615234377
aF-0.29368399047851562
aF-0.29279455566406248
aF-0.29175720214843748
aF-0.29026040649414064
aF-0.28985009765625003
aF-0.28917349243164064
aF-0.28875942993164061
aF-0.28785842895507813
aF-0.28753616333007814
aF-0.28701434326171876
aF-0.28596722412109377
aF-0.28460321044921877
aF-0.28254159545898438
aF-0.27846997070312501
aF-0.27719857788085939
aF-0.27337075805664063
aF-0.26936553955078124
aF-0.26538662719726563
aF-0.26089630126953123
aF-0.25475732421875003
aF-0.25253109741210938
aF-0.2483650665283203
aF-0.2437393798828125
aF-0.2378516387939453
aF-0.23577810668945312
aF-0.23237207031250001
aF-0.22934963989257812
aF-0.226878173828125
aF-0.22382583618164062
aF-0.22113775634765626
aF-0.21876271057128907
aF-0.21688769531249999
aF-0.21463845825195313
aF-0.2127475128173828
aF-0.21065658569335938
aF-0.20862693786621095
aF-0.20689036560058593
aF-0.20518556213378905
aF-0.20395573425292968
aF-0.20235035705566407
aF-0.20082351684570313
aF-0.19892704772949218
aF-0.19681193542480468
aF-0.19471731567382813
aF-0.19222953796386719
aF-0.18929104614257813
aF-0.18654705810546876
aF-0.1839283447265625
aF-0.18063960266113283
aF-0.17721260070800782
aF-0.17333416748046876
aF-0.16960675048828125
aF-0.16478178405761718
aF-0.15835263061523439
aF-0.15432144165039063
aF-0.15160545349121093
aF-0.14565661621093751
aF-0.13774885559082031
aF-0.13774885559082031
aF-0.13296697998046875
aF-0.12902113342285157
aF-0.1263228302001953
aF-0.12170219421386719
aF-0.11855401611328124
aF-0.11454130554199218
aF-0.11234410095214843
aF-0.10946473693847657
aF-0.10680184936523437
aF-0.10413261413574219
aF-0.10157113647460937
aF-0.098566581726074215
aF-0.093572502136230473
aF-0.091171325683593749
aF-0.086771438598632816
aF-0.083546577453613283
aF-0.080330108642578127
aF-0.076231079101562502
aF-0.072147811889648444
aF-0.067322845458984371
aF-0.063074134826660161
aF-0.058336193084716798
aF-0.050453353881835937
aF-0.049274688720703126
aF-0.041258979797363281
aF-0.038571346282958982
aF-0.03403804397583008
aF-0.030034748077392578
aF-0.029128669738769531
aF-0.021488557815551756
aF-0.019885746002197266
aF-0.01738226318359375
aF-0.012070201873779296
aF-0.008613003730773925
aF-0.0049907617568969729
aF-0.0014019078016281128
aF-8.2547008991241461e-05
aF0.0030272314548492434
aF0.0066460857391357426
aF0.010728116989135741
aF0.016244741439819337
aF0.018602556228637695
aF0.023108680725097655
aF0.027493169784545898
aF0.031325590133666995
aF0.035764709472656253
aF0.039439758300781252
aF0.043861454010009765
aF0.049878990173339841
aF0.054161521911621095
aF0.056796211242675781
aF0.062999645233154294
aF0.06452011108398438
aF0.070855377197265632
aF0.074890640258789068
aF0.077429878234863275
aF0.081465606689453129
aF0.084849090576171876
aF0.090575325012207025
aF0.092333320617675782
aF0.096273750305175779
aF0.10024038696289063
aF0.10534380340576172
aF0.11007109832763672
aF0.11561034393310547
aF0.12061498260498046
aF0.12751144409179688
aF0.12876736450195311
aF0.13400476074218751
aF0.13738653564453124
aF0.13824548339843751
aF0.14241282653808593
aF0.14321270751953125
aF0.14538735961914062
aF0.14866374206542968
aF0.15000267028808595
aF0.15264041137695311
aF0.15602589416503906
aF0.15911660766601562
aF0.16248649597167969
aF0.16598425292968749
aF0.16981169128417969
aF0.1734584503173828
aF0.17733938598632812
aF0.18145675659179689
aF0.18530511474609376
aF0.18950755310058592
aF0.19095947265624999
aF0.19784397888183594
aF0.2021307373046875
aF0.20613154602050782
aF0.20981521606445314
aF0.21352151489257812
aF0.21688510131835936
aF0.21986904907226562
aF0.22308383178710939
aF0.22569105529785155
aF0.22838182067871093
aF0.23122187805175781
aF0.23405543518066407
aF0.23669960021972655
aF0.2391978302001953
aF0.24201614379882813
aF0.24466513061523437
aF0.24774096679687499
aF0.25036946105957031
aF0.25266033935546878
aF0.25592431640625002
aF0.25746066284179686
aF0.26045358276367186
aF0.26304794311523438
aF0.26578070068359377
aF0.26791635131835939
aF0.27008438110351562
aF0.27200015258789062
aF0.27414102172851562
aF0.27646963500976562
aF0.27818008422851564
aF0.27950387573242186
aF0.28024487304687501
aF0.2821915588378906
aF0.28385107421875
aF0.28596057128906249
aF0.28677508544921876
aF0.28867852783203124
aF0.28962011718750003
aF0.29058007812499997
aF0.29169268798828124
aF0.2930100402832031
aF0.29435546875000002
aF0.29570529174804688
aF0.29745278930664065
aF0.2991846618652344
aF0.3010242919921875
aF0.30341198730468749
aF0.30541238403320314
aF0.30720501708984377
aF0.30927865600585935
aF0.31103747558593747
aF0.31291558837890626
aF0.31639773559570311
aF0.31639773559570311
aF0.31771643066406252
aF0.31953573608398439
aF0.32068035888671875
aF0.32131024169921873
aF0.32199920654296876
aF0.32297338867187497
aF0.32375927734374998
aF0.32445440673828124
aF0.32515832519531251
aF0.32555831909179689
aF0.32574301147460938
aF0.32590808105468749
aF0.32612411499023436
aF0.32608569335937498
aF0.32586294555664064
aF0.32575030517578124
aF0.32575241088867185
aF0.32544573974609375
aF0.32513742065429685
aF0.3250687561035156
aa(lp519
g11
(g13
S'~\xdb\x08\xb8\x9d\x13\xa2\xbf'
tRp520
ag11
(g13
S'\xf5\xd0A\xbc\x8d\xb5\xa7\xbf'
tRp521
ag11
(g13
S'\xc0_\x15c\xf2\xff\xb3\xbf'
tRp522
ag11
(g13
S'SQ\xda\xf08L\xc0\xbf'
tRp523
ag11
(g13
S'\xe0j\xfc1\x08$\xc8\xbf'
tRp524
ag11
(g13
S'Q7\xb5{\x1cX\xd0\xbf'
tRp525
ag11
(g13
S'\xafE\xe8$\xb4\x80\xd4\xbf'
tRp526
ag11
(g13
S'\xdc\xee\x90Jz\x1b\xd8\xbf'
tRp527
ag11
(g13
S'\xc1\x9c,c\xde\xc5\xda\xbf'
tRp528
ag11
(g13
S'\x95\x81z\xdec4\xdc\xbf'
tRp529
ag11
(g13
S'\xad\xf9\xca\x86LD\xdc\xbf'
tRp530
ag11
(g13
S'\xdc\xd3\xa8\xe9\r\xf4\xda\xbf'
tRp531
ag11
(g13
S'`\x05\xb6VKj\xd8\xbf'
tRp532
ag11
(g13
S'U\xfa\xcd8C\xef\xd4\xbf'
tRp533
ag11
(g13
S'/\x9d\xc94;\xe6\xd0\xbf'
tRp534
ag11
(g13
S'M\x1d\xaeh\xc3\x82\xc9\xbf'
tRp535
ag11
(g13
S'\xfa,Y\x0c\xbc\xec\xc1\xbf'
tRp536
ag11
(g13
S'\x17\x9bNu\xbd\xcb\xb7\xbf'
tRp537
ag11
(g13
S'$\r\xc6\xd2\xf4"\xb0\xbf'
tRp538
ag11
(g13
S'\xbc\x8c\x12-\xf6\xa9\xab\xbf'
tRp539
ag11
(g13
S'z\xd4\x07\x1d\xbf&\x95\xbf'
tRp540
ag11
(g13
S'+\xd5\x03\xcb\xc8\x0b\x97\xbf'
tRp541
ag11
(g13
S'\x067\xec\xf5\xe7\xd6\x98\xbf'
tRp542
ag11
(g13
S'd\x8b2\x0c\x85\x86\x9a\xbf'
tRp543
ag11
(g13
S'!\xb9\x9fG\x13\x1c\x9c\xbf'
tRp544
ag11
(g13
S'\xaac\x86\xb6\x04\x88\x9d\xbf'
tRp545
ag11
(g13
S'.3>+\xa1\xf1\x9e\xbf'
tRp546
ag11
(g13
S'\x80!}b\x81\x1d\xa0\xbf'
tRp547
ag11
(g13
S'\x1b]\x8a\x04\xb1\xad\xa0\xbf'
tRp548
ag11
(g13
S'CsnX\xdbC\xa1\xbf'
tRp549
ag11
(g13
S'!\x08\x0f\x1d\x1e\xcb\xa1\xbf'
tRp550
ag11
(g13
S'\x14\xc2{\x8f\x17L\xa2\xbf'
tRp551
ag11
(g13
S'\xc0r\x93,O\xc7\xa2\xbf'
tRp552
ag11
(g13
S'/\xf16CI?\xa3\xbf'
tRp553
ag11
(g13
S'\xba]\xdd\xce\x8e\xb2\xa3\xbf'
tRp554
ag11
(g13
S'\x19\xd4\x952A\x1f\xa4\xbf'
tRp555
ag11
(g13
S'\x07)5\x15\x7f\x87\xa4\xbf'
tRp556
ag11
(g13
S'\xad\xea\xc0)\xd2\xd6\xa4\xbf'
tRp557
ag11
(g13
S'\x84\xc0\xa2\xe9\x078\xa5\xbf'
tRp558
ag11
(g13
S'\xdeeI&q\xa0\xa5\xbf'
tRp559
ag11
(g13
S'\x90\xdf\xdb\xec\x84\x8c\xa5\xbf'
tRp560
ag11
(g13
S'\xd8l\x16X\xc84\xa4\xbf'
tRp561
ag11
(g13
S't\x95f\xf1\xd9(\xa2\xbf'
tRp562
ag11
(g13
S'3Z\x9cC\\T\x9d\xbf'
tRp563
ag11
(g13
S'\xa5\xb8\xd8*\x1f\x85\x91\xbf'
tRp564
ag11
(g13
S'\x0c+\xa9!\x9a}F?'
tRp565
ag11
(g13
S'\xc5\xb8\x13\xd6vq\x96?'
tRp566
ag11
(g13
S'1e\xfc\xfb\x93h\xa9?'
tRp567
ag11
(g13
S'e0\x83\xc6L\xd5\xb4?'
tRp568
ag11
(g13
S'\x0c+\xb6\xe2\xa8x\xbd?'
tRp569
ag11
(g13
S'<\xb1K\xe5w\x0e\xc3?'
tRp570
ag11
(g13
S'\xc6<`~\xe1\x17\xc7?'
tRp571
ag11
(g13
S'Q\xe3\x9b\xe9\xb0\xa6\xca?'
tRp572
ag11
(g13
S'\xfd-q\xa2\xd8p\xcd?'
tRp573
ag11
(g13
S'\x95I\x1f\xc1\x86Z\xcf?'
tRp574
ag11
(g13
S'.Y:\x8a\xd0\x19\xd0?'
tRp575
ag11
(g13
S"v\xde\xb4\x08\x8b'\xd0?"
tRp576
ag11
(g13
S'Uf\x11P\xa6\x80\xcf?'
tRp577
ag11
(g13
S'P7\xe6\xb87,\xce?'
tRp578
ag11
(g13
S'\xee\x00|Fq\x90\xcc?'
tRp579
ag11
(g13
S'\xf6\x03s\xc7[\xd6\xca?'
tRp580
ag11
(g13
S'}\xb1\\\xa8\xac\xfe\xc8?'
tRp581
ag11
(g13
S'\x825\x06\xc6lU\xc7?'
tRp582
ag11
(g13
S'v\xd4B)C\xda\xc5?'
tRp583
ag11
(g13
S'\xf7dy\xd0c\x85\xc4?'
tRp584
ag11
(g13
S'\xc6x\x97\xe3@#\xc3?'
tRp585
ag11
(g13
S'i\x03\x05\xddB,\xc2?'
tRp586
ag11
(g13
S'\n$\xe1\xe9\x82\x1e\xc1?'
tRp587
ag11
(g13
S'\xb1\xcc\x0f\xd9P\x00\xc0?'
tRp588
ag11
(g13
S'\x17\xecMs\x81\xb9\xbd?'
tRp589
ag11
(g13
S'\xa8 \x00\xa9\xcbj\xbb?'
tRp590
ag11
(g13
S'\xcf\xdb\x1fj\xa5\x08\xb9?'
tRp591
ag11
(g13
S'\xa6\xd5\xdf0\xfa\x95\xb6?'
tRp592
ag11
(g13
S'/k\xff\xf4\x8e\x10\xb4?'
tRp593
ag11
(g13
S'\x00\x9dn8e\x99\xb1?'
tRp594
ag11
(g13
S'\xf0\xbe\xa5\xf1D<\xaf?'
tRp595
ag11
(g13
S'Q\x8c\xda)\xed\x1b\xab?'
tRp596
ag11
(g13
S'\x95_VP\x8eB\xa8?'
tRp597
ag11
(g13
S'\xc1\xc0\xc0\xbd\xcc\x80\xa5?'
tRp598
ag11
(g13
S'(\xcd\xbfi\x1d\xd6\xa3?'
tRp599
ag11
(g13
S'\x8c\xf5\x84\xb0\x18\x00\xa3?'
tRp600
ag11
(g13
S'\xda\xadnx\xd7H\xa2?'
tRp601
ag11
(g13
S'\xe8*\xdb\x9c\x96\x9e\xa1?'
tRp602
ag11
(g13
S'\x17\t\x86\x82\xa9o\xa1?'
tRp603
ag11
(g13
S'Fg\xfax+\xd4\xa0?'
tRp604
ag11
(g13
S'\xdb\xe3u\x9eY\xc9\x9f?'
tRp605
ag11
(g13
S'}\xff\xce\xa7t\x1e\x9e?'
tRp606
ag11
(g13
S'\x93\xd6P\xaf\x95\xbd\x9a?'
tRp607
ag11
(g13
S'\xe3\x14\xd0!\x8fd\x97?'
tRp608
ag11
(g13
S'uUR\xbe\xd1r\x93?'
tRp609
ag11
(g13
S'\xa0\xab\x06\x01\xb1\xde\x8d?'
tRp610
ag11
(g13
S'f\xdb\xc4\x1a\x08\x80\x85?'
tRp611
ag11
(g13
S'\xb7\xa2\xd0\xaf\xc9px?'
tRp612
ag11
(g13
S'\xd4\xe2FS\xdbFa?'
tRp613
ag11
(g13
S'$\xe2\x07\xeb\x7f\x06T\xbf'
tRp614
ag11
(g13
S'\xc64\xda\x12\x11)p\xbf'
tRp615
ag11
(g13
S'6\x13\xd8\xc0\xf3wx\xbf'
tRp616
ag11
(g13
S'\xec\x9e:>I\xef~\xbf'
tRp617
ag11
(g13
S'\xff\xf4\xdc\xd7>\xeb~\xbf'
tRp618
ag11
(g13
S'\xa5|\x04\xf0|\xaez\xbf'
tRp619
ag11
(g13
S'\xe9\x17\xdcY$<u\xbf'
tRp620
ag11
(g13
S'G\nN\xed\xa4\x10j\xbf'
tRp621
ag11
(g13
S'\xb0\xd3\xd7\x02N\x16-\xbf'
tRp622
ag11
(g13
S'\x0c\xffb\x9e\x83\x08b?'
tRp623
ag11
(g13
S'\x85-6\xe1\xf59s?'
tRp624
ag11
(g13
S'\x1d\xdf\xb7\xbe\x90\x82\x80?'
tRp625
ag11
(g13
S'\xb0?y,\xfb&\x84?'
tRp626
ag11
(g13
S'\xc8\x0bo9\xffp\x88?'
tRp627
ag11
(g13
S'H\x01^\x892\x82\x8b?'
tRp628
ag11
(g13
S'B*\x9a\x13:\xa8\x8e?'
tRp629
ag11
(g13
S'e\xb3`\xfd\xc5\x9a\x90?'
tRp630
ag11
(g13
S'\x81\xe4\x9d\x86\x96e\x91?'
tRp631
ag11
(g13
S'\xa6\x96\xb0+\xa9\x9b\x92?'
tRp632
ag11
(g13
S'\xca9\x08\xbf\x04&\x93?'
tRp633
ag11
(g13
S'\xc7\xa0\xc0\x9e\xfb\xa0\x93?'
tRp634
ag11
(g13
S'\xc2$T\x032\xf8\x93?'
tRp635
ag11
(g13
S'\x1c\xfb\xd2\xaarp\x93?'
tRp636
ag11
(g13
S'1\xa7s\x0f\xe2\x7f\x92?'
tRp637
ag11
(g13
S'\x95\x0e,Y\x18p\x91?'
tRp638
ag11
(g13
S'\xfa&\x1a]x|\x8e?'
tRp639
ag11
(g13
S'r3\xd4=\xa5^\x89?'
tRp640
ag11
(g13
S'\xfb\tv\xb5_L\x83?'
tRp641
ag11
(g13
S'n\xd4\xe2\x8f\xbb~x?'
tRp642
ag11
(g13
S'\xf8[\xb5\x12\x9fgb?'
tRp643
ag11
(g13
S'1\xb9\xb8\x1ao\xc9H\xbf'
tRp644
ag11
(g13
S'E\xae\xcf\xc5\x15\\p\xbf'
tRp645
ag11
(g13
S'\xad`UzN y\xbf'
tRp646
ag11
(g13
S'}f\xe6\x02-\xe9~\xbf'
tRp647
ag11
(g13
S'K\xe6\x1c\x83\x94\xbf\x7f\xbf'
tRp648
ag11
(g13
S'\x9a\n\xbdfv\x9e|\xbf'
tRp649
ag11
(g13
S'7\x17\x9ca\xeb\x10t\xbf'
tRp650
ag11
(g13
S'\x03\xf0r\x07\xc8_Z\xbf'
tRp651
ag11
(g13
S'\xd0K!\x89*\xa7Y?'
tRp652
ag11
(g13
S'\xf5\x14/r\xa3%v?'
tRp653
ag11
(g13
S'\x96B\xaf\xf2e\xa4\x82?'
tRp654
ag11
(g13
S'=\xb3\x8c\x13\xec2\x88?'
tRp655
ag11
(g13
S'e\xae\xc5\x06\x92\xea\x8c?'
tRp656
ag11
(g13
S'\x84\xb50j\xf8\x14\x8f?'
tRp657
ag11
(g13
S'N\x96\x9fy|0\x8f?'
tRp658
ag11
(g13
S'\xe6\x86c\xce\x13N\x8d?'
tRp659
ag11
(g13
S'.\x08\x83\x88\r\xe8\x88?'
tRp660
ag11
(g13
S'3\x14\x84/\xd0\x1f\x84?'
tRp661
ag11
(g13
S'\x1a^\xac\x1a\xed\xf0}?'
tRp662
ag11
(g13
S'\x89\xdd\xb3\xcb\xc0et?'
tRp663
ag11
(g13
S'\x91,\xf0Hr\x9ah?'
tRp664
ag11
(g13
S'\x08\x0c_\x98\x1d^[?'
tRp665
ag11
(g13
S'>\x0c\x02O\x85;;?'
tRp666
ag11
(g13
S'6\x975\xdd\xc8\xab8?'
tRp667
ag11
(g13
S'\x91s\x04\x7f\xb1\xceI?'
tRp668
ag11
(g13
S'3\xf2\xe1\xfa\x02\xe9Y?'
tRp669
ag11
(g13
S'J\x8fi\xf9\xbe,c?'
tRp670
ag11
(g13
S'G8\x9d\x8e<il?'
tRp671
ag11
(g13
S')\xdd\xdd\x0eq\x00s?'
tRp672
ag11
(g13
S'\xac\xf2_&\x06>v?'
tRp673
ag11
(g13
S'\xeb\xff\x10\xca\xa7ky?'
tRp674
ag11
(g13
S'\xf1\xc8p\x7f\xd3By?'
tRp675
ag11
(g13
S"N]\t\x0b\x1f'y?"
tRp676
ag11
(g13
S'\xc1\x14\xb4D\x1eVx?'
tRp677
ag11
(g13
S'\x0f\xc2\xcf\x06/at?'
tRp678
ag11
(g13
S'1J\xdb\x83\x15-p?'
tRp679
ag11
(g13
S'\x1e\xa1\x1bVj9f?'
tRp680
ag11
(g13
S'kk\xdc\x9d\xac\xbfU?'
tRp681
ag11
(g13
S'\x8f*J5\x8d\xca\t?'
tRp682
ag11
(g13
S'\xb2e\x84\xdc\x05kO\xbf'
tRp683
ag11
(g13
S'V`Z\x16\x90\x1d^\xbf'
tRp684
ag11
(g13
S"\x0e'\xb37\xb4\xc0b\xbf"
tRp685
ag11
(g13
S'/\x19\xa7\xb1\xba/_\xbf'
tRp686
ag11
(g13
S'\xadB?M\x9e\xdeX\xbf'
tRp687
ag11
(g13
S'\xdb\xf8\xc4?\xa5\xfbP\xbf'
tRp688
ag11
(g13
S'\x08\xc7\x07z\xf8\xed#\xbf'
tRp689
ag11
(g13
S'\x9e;\x1188@R?'
tRp690
ag11
(g13
S'\x1e\x87\xb5\xd1\x9cN^?'
tRp691
ag11
(g13
S'\xbcM\xb6,\x1b\x1ea?'
tRp692
ag11
(g13
S'\x05\n.\xc77\xf5a?'
tRp693
ag11
(g13
S'\x94e\xea\x8c3\x92Y?'
tRp694
ag11
(g13
S'\x82\x1aX4\xb8\x13Q?'
tRp695
ag11
(g13
S'\x91\xde\xca\x98([-\xbf'
tRp696
ag11
(g13
S'\xf8j\x92\xd9mLW\xbf'
tRp697
ag11
(g13
S'9U\xf8p\x90\xd3b\xbf'
tRp698
ag11
(g13
S'F\xce\x13\xaebFl\xbf'
tRp699
ag11
(g13
S'z>:.\x06\xb5o\xbf'
tRp700
ag11
(g13
S'p\x98\xd4$\x0f\xefp\xbf'
tRp701
ag11
(g13
S't"\xf04\x98$p\xbf'
tRp702
ag11
(g13
S'S\xe8#\xfb\xa8\xeck\xbf'
tRp703
ag11
(g13
S'D\r\xe2,_\xb1h\xbf'
tRp704
ag11
(g13
S'u\xcfod\xe4Mc\xbf'
tRp705
ag11
(g13
S'I;N!~\xfb_\xbf'
tRp706
ag11
(g13
S'\xf03\x8a\x945VU\xbf'
tRp707
ag11
(g13
S'\xf7\xa5=\x1b\xa9^K\xbf'
tRp708
ag11
(g13
S'\xe7\xa6\xf7\xd6\x8e\xf73\xbf'
tRp709
ag11
(g13
S'\x9c%\x9c\xa6\xa4\x11\x10\xbf'
tRp710
ag11
(g13
S'\xc2z\xba\xe2@\xa1\x19?'
tRp711
ag11
(g13
S'\xcc\xfe\xe30$\xfa3?'
tRp712
ag11
(g13
S't\xafW39vC?'
tRp713
ag11
(g13
S'\x96\xac7bX\xe4@?'
tRp714
ag11
(g13
S'n\x94\x84UgZ2?'
tRp715
ag11
(g13
S'DBL\x08\xf5\xc1\t\xbf'
tRp716
ag11
(g13
S'\xa5\xd4\x97\xe7\xc7"I\xbf'
tRp717
ag11
(g13
S'+\xbd\x1a\xf7\xbc\xf3Z\xbf'
tRp718
ag11
(g13
S'\x88\x19,\xa7\xfa:c\xbf'
tRp719
ag11
(g13
S'\xd6\x92\x1e\xf7\x9a\xe4j\xbf'
tRp720
ag11
(g13
S'\x80r\t\\\x93\xf1o\xbf'
tRp721
ag11
(g13
S'\xbb\xf4\xb3O\xf3\xe2r\xbf'
tRp722
ag11
(g13
S'\xba\xdb\x9by-\xbbt\xbf'
tRp723
ag11
(g13
S'\xbc@y*\xb3\xfcs\xbf'
tRp724
ag11
(g13
S'\xdbO\x85\xe9\xdb\xa3r\xbf'
tRp725
ag11
(g13
S':6\xbb\x07\xff\x07n\xbf'
tRp726
ag11
(g13
S'\xc5\x96\x1e\xed\x85\xdbh\xbf'
tRp727
ag11
(g13
S'\x90\xce\x1b\xbb#%Y\xbf'
tRp728
ag11
(g13
S'\xd3\xedB\xe7\xcd\xaf?\xbf'
tRp729
ag11
(g13
S'\x96Y\x1f#\x90\xb5P?'
tRp730
ag11
(g13
S'\xb1\x95\xb1Z,\xf2`?'
tRp731
ag11
(g13
S'[\x98\x82\xf8\x16\rj?'
tRp732
ag11
(g13
S'\x05\xf6\xd8e\xc0\xa2q?'
tRp733
ag11
(g13
S'Kr\xfb\xdd\x93ot?'
tRp734
ag11
(g13
S'\xa2b\x7f`\xbe\x83v?'
tRp735
ag11
(g13
S'K\x81\xf7\x9a\x8e\xdbw?'
tRp736
ag11
(g13
S'E\xf4\xe8Zo\xacx?'
tRp737
ag11
(g13
S')m\xc6\x179\x99x?'
tRp738
ag11
(g13
S'3SS\xbd\x04\xc1v?'
tRp739
ag11
(g13
S'I\xb4\xcf\x05p\xcfs?'
tRp740
ag11
(g13
S'\xd10_\x81\xc8vo?'
tRp741
ag11
(g13
S'Hh\x8f\xb2)\x82i?'
tRp742
ag11
(g13
S'b\xf7\xdb\xcf\xf4Da?'
tRp743
ag11
(g13
S'\x15\x07/6\t/J?'
tRp744
ag11
(g13
S'\x1e\xd2\x82\x9d\xb5\xb7\x1f\xbf'
tRp745
ag11
(g13
S'|v\xca\x80\xe8\x94L\xbf'
tRp746
ag11
(g13
S'\xf0\t\x1c\xed\xffuU\xbf'
tRp747
ag11
(g13
S'n\xd3\xe2\x17c\xbaW\xbf'
tRp748
ag11
(g13
S'\xb4\x9d\x84O6\xaeQ\xbf'
tRp749
ag11
(g13
S'\xeb\xa8\xdaD\x19\x82P\xbf'
tRp750
ag11
(g13
S'\x9a\x1e\xa1\xb5j\xacB\xbf'
tRp751
ag11
(g13
S'\xa9\xae\x90\x80\xe6\xe5%?'
tRp752
ag11
(g13
S']\x13\xcd\xc6T\xa1.\xbf'
tRp753
ag11
(g13
S'\n\xd8\x87\xe7\xbaF$\xbf'
tRp754
ag11
(g13
S'\xc5\xca\xc0\x98iV>\xbf'
tRp755
ag11
(g13
S'L\xec\xcaD\xd8\xd3D\xbf'
tRp756
ag11
(g13
S'\x88\xcf\x0f\x0ct\xd2Q\xbf'
tRp757
ag11
(g13
S'\xb6|\xe3\xec\x88\xdcX\xbf'
tRp758
ag11
(g13
S'K\x91\xb7\x0c\x10\xa2W\xbf'
tRp759
ag11
(g13
S'\xd5\x98\x84\n\xdf\xfbS\xbf'
tRp760
ag11
(g13
S'\x07\x1b\xc69\xeeQ)\xbf'
tRp761
ag11
(g13
S'\xb7\x11\x11k\xd9\x06L?'
tRp762
ag11
(g13
S'\xe1M\xa3\xe4\xb9Lc?'
tRp763
ag11
(g13
S'\x10\xa3\xd4\x16\x8d\x7fn?'
tRp764
ag11
(g13
S'XW7\x8f\xb4[t?'
tRp765
ag11
(g13
S't\xde\xe4\xa4\xff/w?'
tRp766
ag11
(g13
S'X\xa1\x079`-x?'
tRp767
ag11
(g13
S'\xfc\xe3\xe6\xd5W-w?'
tRp768
ag11
(g13
S'\xdba\xec\x7f\xf3\xc3s?'
tRp769
ag11
(g13
S'\xc2\x9c\xdb\xca\xca\x08k?'
tRp770
ag11
(g13
S'\xd7*P2\x8a\xab[?'
tRp771
ag11
(g13
S'\xc0\xc0\xd5e5EF\xbf'
tRp772
ag11
(g13
S'\xf4\xad\x81\xdc\x85\xca`\xbf'
tRp773
ag11
(g13
S'\x86i\xf5\\H\x1fk\xbf'
tRp774
ag11
(g13
S"\xc3n\x05\xb3'\x88p\xbf"
tRp775
ag11
(g13
S'\x88\x16\xd9\x82\xe1\xf4q\xbf'
tRp776
ag11
(g13
S'\xf4\x9bo\xd9\xd8\\q\xbf'
tRp777
ag11
(g13
S'\xc6\xbcq\x92)\xc0m\xbf'
tRp778
ag11
(g13
S'@8i6\x99Rf\xbf'
tRp779
ag11
(g13
S'\x0f&56\xbd`Z\xbf'
tRp780
ag11
(g13
S'\xa6B\xa2\xc7\xdd\x10.\xbf'
tRp781
ag11
(g13
S'!`\x01^\x88\x85S?'
tRp782
ag11
(g13
S'\x86\xae\x16\x8bOae?'
tRp783
ag11
(g13
S'\x8d\x1aX}\xd3Mq?'
tRp784
ag11
(g13
S'\x8eMn\xe9!\xb9v?'
tRp785
ag11
(g13
S'GQ\xfc\x8e\x11\x80|?'
tRp786
ag11
(g13
S'\xe6\xba\xe5\x8a\xb2v\x81?'
tRp787
ag11
(g13
S'\xe0\xe9\xa3\xe7\xba\xee\x82?'
tRp788
ag11
(g13
S'\x15\xc7`\x94\xe1\xdf\x83?'
tRp789
ag11
(g13
S'\xed7\x16\x9b\xf4\xfb\x83?'
tRp790
ag11
(g13
S'\x96\x07\xda\xa2y\x0c\x82?'
tRp791
ag11
(g13
S'\xc5\xa2\xb3c\x81\x15\x7f?'
tRp792
ag11
(g13
S'h\x07\x82\x87\x97cx?'
tRp793
ag11
(g13
S'\xdeP\x05\x1e\xf1\x85m?'
tRp794
ag11
(g13
S'\xfc\x17\x90\x95\x8c(T?'
tRp795
ag11
(g13
S'\x08\x9c\x9b\x1az\x0eT\xbf'
tRp796
ag11
(g13
S'F\x01\xe8iJ\xb3l\xbf'
tRp797
ag11
(g13
S'\xb8w\xfb\xb8\xb6\x9eu\xbf'
tRp798
ag11
(g13
S'\xdee\xf0\x00\x8f\x08~\xbf'
tRp799
ag11
(g13
S'\x85\x11\xcc\xda\xb0\x0c\x82\xbf'
tRp800
ag11
(g13
S'\xce\xef\r\xc3\x11\xa1\x84\xbf'
tRp801
ag11
(g13
S'JzE\xa9/\xd7\x85\xbf'
tRp802
ag11
(g13
S'\xba)\x9b\x0fg\xc7\x86\xbf'
tRp803
ag11
(g13
S'\xcd\x92\x9c\x05\xea\xf5\x86\xbf'
tRp804
ag11
(g13
S'K\xdeaA\x14\xe4\x85\xbf'
tRp805
ag11
(g13
S'\x06\x8d\x85i\xef"\x84\xbf'
tRp806
ag11
(g13
S'\xb2\xea\x08\x9c\xec/\x82\xbf'
tRp807
ag11
(g13
S'l\xc9\xc9m\x88\x9e}\xbf'
tRp808
ag11
(g13
S'0H(V\xa8=w\xbf'
tRp809
ag11
(g13
S'\x8a\ryaVZp\xbf'
tRp810
ag11
(g13
S'\x06\x02\xe1\xc4\xc0hd\xbf'
tRp811
ag11
(g13
S"'\x94\xac\xde\xd7\x15[\xbf"
tRp812
ag11
(g13
S'\xd9\xe5\x07I@]]\xbf'
tRp813
ag11
(g13
S'\x9ei\n\xe8\xa2\xf7\\\xbf'
tRp814
ag11
(g13
S'\xdd5mpi\xcae\xbf'
tRp815
ag11
(g13
S'\xe2$\xc1\xdf!\xe5r\xbf'
tRp816
ag11
(g13
S'v\x17\x0c\x8a\x7f\xcf{\xbf'
tRp817
ag11
(g13
S'\xd3\xc4\r\xe6\xe7)\x84\xbf'
tRp818
ag11
(g13
S'\x07\xd2zEr!\x8a\xbf'
tRp819
ag11
(g13
S'\xfc\xdfA\xdc\x9f\xb2\x8f\xbf'
tRp820
ag11
(g13
S'\xa1TR\xe1\xee\x88\x92\xbf'
tRp821
ag11
(g13
S'\x87r\xb2n\x19\xbc\x94\xbf'
tRp822
ag11
(g13
S't\\E\xde^\x8e\x96\xbf'
tRp823
ag11
(g13
S'.L\x9d\xce\xfd}\x97\xbf'
tRp824
ag11
(g13
S'\x8e\xad\xe5\xc9.\xd1\x97\xbf'
tRp825
ag11
(g13
S'\t@.\xc8\xb1\x91\x97\xbf'
tRp826
ag11
(g13
S'#^Xb\xa6}\x96\xbf'
tRp827
ag11
(g13
S'X\xaf\x98\xd3%_\x95\xbf'
tRp828
ag11
(g13
S'V\x90A\x9ep\xbf\x93\xbf'
tRp829
ag11
(g13
S'\xf9\x9b%\xcb\xbe \x92\xbf'
tRp830
ag11
(g13
S'\t\xe6:o\x96W\x90\xbf'
tRp831
ag11
(g13
S'\xcc+\xba\xec\xa6e\x8d\xbf'
tRp832
ag11
(g13
S'\xf9\xae\xd4\x10\x0f\x0c\x89\xbf'
tRp833
ag11
(g13
S'G\xb5\x97\xc5F\xbd\x85\xbf'
tRp834
ag11
(g13
S'\x10\xd8\xa4\xc21\x96\x83\xbf'
tRp835
ag11
(g13
S'$!\xde\x88\xa7\x9f\x80\xbf'
tRp836
ag11
(g13
S'\x19=\xb6"\xa1\x83|\xbf'
tRp837
ag11
(g13
S'\xa6\x95j\x9a\x905w\xbf'
tRp838
ag11
(g13
S'\xef\r\x9c\x88\xddLt\xbf'
tRp839
ag11
(g13
S'\xd5\xee\xb9\xc4\x06\xa0q\xbf'
tRp840
ag11
(g13
S'\x1a\x88\xd1w\x96Ao\xbf'
tRp841
ag11
(g13
S'pV|\x89{\x1bl\xbf'
tRp842
ag11
(g13
S'\x91\xf1\xab\xa8\xf0\xdah\xbf'
tRp843
ag11
(g13
S'\xae\xbe-\xb8@Bf\xbf'
tRp844
ag11
(g13
S'\x9a\xa0\x92s\xdbMe\xbf'
tRp845
ag11
(g13
S'\xcc27\x18\xed\xb0a\xbf'
tRp846
ag11
(g13
S';j\xf2\xad\xa8\xa0^\xbf'
tRp847
ag11
(g13
S'\x138% \xb3-W\xbf'
tRp848
ag11
(g13
S'\xf5%\xff\x1b@\x8fF\xbf'
tRp849
ag11
(g13
S'b\t\xf1z\x0b\xb0\x07\xbf'
tRp850
ag11
(g13
S'!\xd4\x1b\xe6\x93HH?'
tRp851
ag11
(g13
S'n\xbe\x03T\xd9%X?'
tRp852
ag11
(g13
S'\xca>\te}Gd?'
tRp853
ag11
(g13
S'{\x13Z2\xac\xe4h?'
tRp854
ag11
(g13
S'}\xce]\x86K\xfen?'
tRp855
ag11
(g13
S'b\x1b\x8a\x87j\x8dp?'
tRp856
ag11
(g13
S'n+\xa0G\nVp?'
tRp857
ag11
(g13
S'\xacl1\xb5\xcbek?'
tRp858
ag11
(g13
S't\x0c\x16\xd0r-c?'
tRp859
ag11
(g13
S'4T\xc2*l\x84F?'
tRp860
ag11
(g13
S'\xc3\xf5\xf2\x88\xf8\x9dO\xbf'
tRp861
ag11
(g13
S'\xbc\xc2\x88\x84\xc4\xaci\xbf'
tRp862
ag11
(g13
S'h\x98\xa1\xcc@\x98v\xbf'
tRp863
ag11
(g13
S'\xd1\xf0\xcd\xd1\x0cy~\xbf'
tRp864
ag11
(g13
S'~gqI\x8b\x1e\x82\xbf'
tRp865
ag11
(g13
S'@q\xd7\xde\xd3\xf4\x83\xbf'
tRp866
ag11
(g13
S'H\x87k\xc3\x89\xa5\x84\xbf'
tRp867
ag11
(g13
S'p\xe3\r\x0b\xb7\x11\x83\xbf'
tRp868
ag11
(g13
S'\xad\xad\x86A\x92$\x80\xbf'
tRp869
ag11
(g13
S'\x08\xb9\xac}\x86\\w\xbf'
tRp870
ag11
(g13
S'\xda\xb9=\xfb\x07\x8bn\xbf'
tRp871
ag11
(g13
S'\xc2pY\x95\xd9\x06M\xbf'
tRp872
ag11
(g13
S'\x063(.EY[?'
tRp873
ag11
(g13
S'\xc4M1\xed.7m?'
tRp874
ag11
(g13
S'-\x18+\xedS\x00v?'
tRp875
ag11
(g13
S'{\xb4\xfd\xd8\xc9N|?'
tRp876
ag11
(g13
S'\xe5a\xcd\xda\x88[\x80?'
tRp877
ag11
(g13
S'P\xd0\xd6\xb0p\xac\x80?'
tRp878
ag11
(g13
S'9\xd7\xf0d7\x07\x81?'
tRp879
ag11
(g13
S'\x08!\x89\x7fE\xc2\x80?'
tRp880
ag11
(g13
S'\xb7\xebw\x99\xb1\xd1}?'
tRp881
ag11
(g13
S'\xd0\xb7\x08u|Cy?'
tRp882
ag11
(g13
S'\xc9\xd7W:)5t?'
tRp883
ag11
(g13
S';\xff\xc8fS&h?'
tRp884
ag11
(g13
S'<\xec\x9b#\xa2-O?'
tRp885
ag11
(g13
S'\xe8h4\x82\x9d>X\xbf'
tRp886
ag11
(g13
S'\x19\x06w\xc8!\x0fm\xbf'
tRp887
ag11
(g13
S'\xe6.m1Nzv\xbf'
tRp888
ag11
(g13
S'BX\xdc\x00\x94\xbe}\xbf'
tRp889
ag11
(g13
S'\x17\x89mpv\xd3\x81\xbf'
tRp890
ag11
(g13
S'\xe1\x96\xb0 \x15^\x83\xbf'
tRp891
ag11
(g13
S'\x12\x92C;x\xb6\x83\xbf'
tRp892
ag11
(g13
S'\x10*\xcb\xa0\xc1\xf6\x83\xbf'
tRp893
ag11
(g13
S'4\xbe\xa6\x9e2-\x82\xbf'
tRp894
ag11
(g13
S'\xf4k\x14\r\x1fj\x80\xbf'
tRp895
ag11
(g13
S'\xa3\x9a\x89}\x11\xf8|\xbf'
tRp896
ag11
(g13
S'M\xd4\x9eC\x89Ky\xbf'
tRp897
ag11
(g13
S'\x8aNW=\x04\xcct\xbf'
tRp898
ag11
(g13
S'\xaa\xd6l\x05z3q\xbf'
tRp899
ag11
(g13
S'\x8bW=\x7f7\xd0k\xbf'
tRp900
ag11
(g13
S'\xbf\xfem\xf4\xa2\x05f\xbf'
tRp901
ag11
(g13
S'\x9f\xae<\x17\x99\x86`\xbf'
tRp902
ag11
(g13
S'\x99HW\xe7B\x14X\xbf'
tRp903
ag11
(g13
S'\xfe\xb7\x9f\xe3\xd9sG\xbf'
tRp904
ag11
(g13
S'x\xe0\xb1)\xabP9?'
tRp905
ag11
(g13
S'\xcf\x92\x9b\xb9\x82OV?'
tRp906
ag11
(g13
S'&\xc5\xdf\xf0`\xf7d?'
tRp907
ag11
(g13
S'q\xc6C\x99\xe1&p?'
tRp908
ag11
(g13
S'X\xbb\xb0\x8e\xce%u?'
tRp909
ag11
(g13
S'\xcc\xb1Xb\x1d\x13y?'
tRp910
ag11
(g13
S'\xad\x97\x1fGP\xa4|?'
tRp911
ag11
(g13
S'\xd4\x8b\x8c[T\x12|?'
tRp912
ag11
(g13
S'\x16\xa2y\xe2\xa0hz?'
tRp913
ag11
(g13
S'E\xf4\xad7\xf8*v?'
tRp914
ag11
(g13
S'\xfam\xf1]\x90\x14p?'
tRp915
ag11
(g13
S'\x1d/q\x13\x03Nb?'
tRp916
ag11
(g13
S'\xe8_\xb7\x128n$?'
tRp917
ag11
(g13
S'\xe0\x96{KS\x88Z\xbf'
tRp918
ag11
(g13
S'P}\xaf\xfe\x17\x07i\xbf'
tRp919
ag11
(g13
S'\x91\x1cN49\x81q\xbf'
tRp920
ag11
(g13
S'q\xb7\xcc)C\x92s\xbf'
tRp921
ag11
(g13
S'\x80\x86\x89\x97\xa3\x9cs\xbf'
tRp922
ag11
(g13
S'\xbf\xd3\xe5\xa2\x8b\xecq\xbf'
tRp923
ag11
(g13
S'L\xc5\xdc\xab1\x8bm\xbf'
tRp924
ag11
(g13
S'Lj\x8c\x98\x98\xcdi\xbf'
tRp925
ag11
(g13
S'z\xd5\x11\xfc\xb2\x03a\xbf'
tRp926
ag11
(g13
S'\xfe\xff%\x8f4\x9cX\xbf'
tRp927
ag11
(g13
S'\xac\xf7U\x18K)R\xbf'
tRp928
ag11
(g13
S'\x19\xbc#\x84\xe0\rP\xbf'
tRp929
ag11
(g13
S'\x0b\xf8CN\xf4\x17P\xbf'
tRp930
ag11
(g13
S'\x94l\x90&_\x0e\\\xbf'
tRp931
ag11
(g13
S'|u\x1b\xf4\\\xce]\xbf'
tRp932
ag11
(g13
S';\xed\xe9\xb8\x11V`\xbf'
tRp933
ag11
(g13
S'\xdc\x1f\n\xae<\xc1`\xbf'
tRp934
ag11
(g13
S'v\xc7\x83\x81\xcerX\xbf'
tRp935
ag11
(g13
S'>.\x94\x1bn\x00J\xbf'
tRp936
ag11
(g13
S'\x9590p\x85\x08D?'
tRp937
ag11
(g13
S'\x9f\x89\xe0R`\x8ac?'
tRp938
ag11
(g13
S'\xbe\xc3\xed<\xef\xfbq?'
tRp939
ag11
(g13
S'h\xba; \xc6\x82z?'
tRp940
ag11
(g13
S'}"\x0b\xc9`\xd3\x81?'
tRp941
ag11
(g13
S'4a/8\x85Z\x85?'
tRp942
ag11
(g13
S'6&8\x8d\x87k\x88?'
tRp943
ag11
(g13
S'\x10B\x1c\xf5\xf1\x86\x8a?'
tRp944
ag11
(g13
S'\xf8\xf4\xf9J:<\x8c?'
tRp945
ag11
(g13
S'\x15\x82\x8fM?X\x8b?'
tRp946
ag11
(g13
S'\x99\x10i?\xa0\xe6\x89?'
tRp947
ag11
(g13
S'\xdfm\xc8\x9e\x1c]\x87?'
tRp948
ag11
(g13
S'\xd5\xe5\\\xbb\rV\x84?'
tRp949
ag11
(g13
S'\xc9\xcc\x8f\x98\x169\x7f?'
tRp950
ag11
(g13
S'/I\xd71\x8a\x02v?'
tRp951
ag11
(g13
S'\xee\xfd\xdc\x04\x1b\xe3g?'
tRp952
ag11
(g13
S'\x9dK\xc4\xa1\xf0~B?'
tRp953
ag11
(g13
S'XP\xb8\x16\x0b\xe7U\xbf'
tRp954
ag11
(g13
S' \xc9<v\x82\xf6g\xbf'
tRp955
ag11
(g13
S'\xb2g\xde\xdf\x05\x83n\xbf'
tRp956
ag11
(g13
S'\x00\x92\x0e\xb1>Ko\xbf'
tRp957
ag11
(g13
S'4\x98WF\x0c\xd6k\xbf'
tRp958
ag11
(g13
S'\xbf\x13m\xa3Z1e\xbf'
tRp959
ag11
(g13
S'`\x99\x98\x02!\x94X\xbf'
tRp960
ag11
(g13
S'\x11\x94:]G\x12<\xbf'
tRp961
ag11
(g13
S'w?\xb8\x1bT\xa6M?'
tRp962
ag11
(g13
S'\x99\xc9\x07\x85sw^?'
tRp963
ag11
(g13
S'\x88\xf2\xa1\xf4\xaf\xa1d?'
tRp964
ag11
(g13
S'\x95&\xa7\x99|Re?'
tRp965
ag11
(g13
S'P\xe8\x90\xbe}\xc5j?'
tRp966
ag11
(g13
S'\xfa\x1b\xb1>\xfe\xc2n?'
tRp967
ag11
(g13
S'\x9a\xde\xf0GV\xd9p?'
tRp968
ag11
(g13
S'\xaf\xdcJ\x06\xc5Bq?'
tRp969
ag11
(g13
S'\xfb\xeb@\xb0\xe5\xacq?'
tRp970
ag11
(g13
S'\xe7Q1\xf2\x12Dr?'
tRp971
ag11
(g13
S'\x89\x80B\xfe\xb2\x8dp?'
tRp972
ag11
(g13
S'/y1\x1cc\xbcf?'
tRp973
ag11
(g13
S'A\x05\xc5\xcb\x83\xfaS?'
tRp974
ag11
(g13
S'\\q\xb2)+\x99M\xbf'
tRp975
ag11
(g13
S'\x1b\xbcu3\xf5\xe5k\xbf'
tRp976
ag11
(g13
S'i*\xea\x833Ww\xbf'
tRp977
ag11
(g13
S"\xc3[\x1f\xa9T'\x80\xbf"
tRp978
ag11
(g13
S'r ;\xf3\x1e\xae\x83\xbf'
tRp979
ag11
(g13
S'\xa9\xd5M\xbb\xa4"\x85\xbf'
tRp980
ag11
(g13
S'\xaa\x18a\x91\xce\x7f\x85\xbf'
tRp981
ag11
(g13
S'\xab\x04!\xf1\xa9r\x84\xbf'
tRp982
ag11
(g13
S'/1\xf2-\x9a\xe8\x81\xbf'
tRp983
ag11
(g13
S'\xff\x9cL\xa00q|\xbf'
tRp984
ag11
(g13
S'\xfa\xcd\xc1\x10Z\xc2t\xbf'
tRp985
ag11
(g13
S'\x049)\xb7\x18\xe4j\xbf'
tRp986
ag11
(g13
S'\x90_?9\x17!^\xbf'
tRp987
ag11
(g13
S'\x12\xca\x9fQ\x9a\xbeD\xbf'
tRp988
ag11
(g13
S'M0?(\xb9\xb7A?'
tRp989
ag11
(g13
S'\xd0CTY;a[?'
tRp990
ag11
(g13
S'\\\xc1\xd8\x18(\xbdb?'
tRp991
ag11
(g13
S'\xd36K]`Vg?'
tRp992
ag11
(g13
S'|\xf3@S\xd16l?'
tRp993
ag11
(g13
S'cMC\xee\x84Pm?'
tRp994
ag11
(g13
S'\xa0\xfe\xfe{o\x8cp?'
tRp995
ag11
(g13
S'\xefN\x84npgr?'
tRp996
ag11
(g13
S'\xb7\x1d\x95D\x935r?'
tRp997
ag11
(g13
S'\x16\xe4\xa0\x1b`\xccr?'
tRp998
ag11
(g13
S'J\x01Sb_\xf4q?'
tRp999
ag11
(g13
S's\xeb!\xfb\xc7\x95p?'
tRp1000
ag11
(g13
S'n\x11\x04\x98\xecdn?'
tRp1001
ag11
(g13
S'\xdb\xf9\xdb\xfc\xa9\xadh?'
tRp1002
ag11
(g13
S'\x0b\xc6.\xd5\xd2 `?'
tRp1003
ag11
(g13
S'\xe2G\xc1\xf25CQ?'
tRp1004
ag11
(g13
S'\xb9Q\xd2\xf6l\xf0 ?'
tRp1005
ag11
(g13
S'k\xa0\x1f<)]Q\xbf'
tRp1006
ag11
(g13
S'1\xb4~\xb5O\x1ba\xbf'
tRp1007
ag11
(g13
S'\xf8\xfb\x08\xe2hfe\xbf'
tRp1008
ag11
(g13
S'\xed\xb68N?\xb6m\xbf'
tRp1009
ag11
(g13
S'\xae|t\xa8)Eq\xbf'
tRp1010
ag11
(g13
S'\xad\x05\x96\x8b\xbdCs\xbf'
tRp1011
ag11
(g13
S'Bs&\xa2\x15\x8ct\xbf'
tRp1012
ag11
(g13
S"\xd9':\x19\xbasu\xbf"
tRp1013
ag11
(g13
S'(\x82\x87B~\xdau\xbf'
tRp1014
ag11
(g13
S'\xde*\x8e\xec\xc9\x88u\xbf'
tRp1015
ag11
(g13
S')\x9dR\xc8\xab2v\xbf'
tRp1016
ag11
(g13
S'\xd3\xcd[\x13\x141t\xbf'
tRp1017
ag11
(g13
S'\x86\xed\x9fP\x7fKr\xbf'
tRp1018
ag11
(g13
S'\xb8\x08ZI\x10[n\xbf'
tRp1019
ag11
(g13
S'y\xe1\x8dm\xd9\x19h\xbf'
tRp1020
aag519
asS'pos'
p1021
(lp1022
(lp1023
F-0.24831437506945328
aF-0.24828536026141815
aF-0.24805054623043651
aF-0.24776857462869284
aF-0.24758855748222403
aF-0.24758855748222403
aF-0.24717864043022078
aF-0.24717864043022078
aF-0.24714521546064092
aF-0.24671164061758355
aF-0.24622742627420141
aF-0.2459200265697653
aF-0.24565413695372157
aF-0.24539393092182826
aF-0.24514037007176451
aF-0.24483623714215649
aF-0.24451025567037357
aF-0.24413068239283298
aF-0.24391435425961089
aF-0.24363156173439615
aF-0.24327987794332664
aF-0.2429382038127291
aF-0.24264086808498028
aF-0.24230626412613065
aF-0.24195026344547438
aF-0.24162473271312374
aF-0.24127886465336235
aF-0.24089499508022486
aF-0.24052438031353313
aF-0.24022232663089443
aF-0.23984715556889125
aF-0.23950602841707688
aF-0.23914546459123465
aF-0.23876553590452529
aF-0.23838441584660153
aF-0.23805704367787081
aF-0.23769270036439386
aF-0.23730970475576771
aF-0.23688988125336319
aF-0.2364515600082476
aF-0.23621510277193153
aF-0.23582268597291681
aF-0.23552043731255071
aF-0.23523160240227187
aF-0.23496293427729989
aF-0.23471931336222562
aF-0.23471931336222562
aF-0.23471931336222562
aF-0.23467981132202437
aF-0.23467981132202437
aF-0.2351425953601646
aF-0.2351425953601646
aF-0.23674187231340818
aF-0.23769014750619613
aF-0.23900171285639443
aF-0.24023578556896033
aF-0.2412191127828347
aF-0.2412191127828347
aF-0.24496810058654409
aF-0.24496810058654409
aF-0.25026354500689979
aF-0.25026354500689979
aF-0.25978895819636266
aF-0.26427908711131753
aF-0.27137797838204381
aF-0.27473807748179574
aF-0.28106085281050863
aF-0.28728041588351139
aF-0.29426363575398873
aF-0.30160415818371705
aF-0.30961319150350147
aF-0.3170451336871547
aF-0.32538537933509076
aF-0.33378329895102476
aF-0.34097727863520572
aF-0.34891599916571436
aF-0.35713893538028213
aF-0.36596391852983656
aF-0.37197319330558304
aF-0.38003568189523113
aF-0.3867968854245048
aF-0.3943665419379131
aF-0.40067688540346752
aF-0.40801928314703362
aF-0.41293309057306254
aF-0.41884303082358393
aF-0.42449201995565655
aF-0.4293769874586566
aF-0.43485889480733891
aF-0.4398960549627019
aF-0.44504316627653823
aF-0.45055312682405646
aF-0.4548108319049623
aF-0.45904673825638759
aF-0.46375844883711059
aF-0.47042111830891115
aF-0.47332374874242361
aF-0.47824824256041154
aF-0.48510920688716969
aF-0.48852001213719043
aF-0.49448741940349711
aF-0.49927670007686098
aF-0.50541142415951246
aF-0.51173384866504934
aF-0.51850481938468074
aF-0.52411411645643047
aF-0.53131241447842514
aF-0.5363046481671172
aF-0.54249373312720672
aF-0.5482803885136569
aF-0.55454251584924663
aF-0.56005193065464631
aF-0.56594667107457752
aF-0.57135529776119665
aF-0.57657476062744273
aF-0.58139358166352384
aF-0.58635470326718231
aF-0.59173218275790607
aF-0.59634902765109166
aF-0.60122052368382839
aF-0.60712996513274031
aF-0.61138414574616173
aF-0.61596345135385799
aF-0.62141231242574879
aF-0.62670748860486969
aF-0.63209753428429982
aF-0.63756100818413364
aF-0.64278866984563132
aF-0.64967135688389954
aF-0.65540774883357089
aF-0.65892293992814022
aF-0.66556741551270182
aF-0.67023666621176536
aF-0.67503865907839322
aF-0.68019827126178767
aF-0.68542959025421135
aF-0.68682764435054455
aF-0.68682764435054455
aF-0.69589963116032139
aF-0.69589963116032139
aF-0.7071964987091568
aF-0.71211630405543602
aF-0.71688757884963661
aF-0.72128515397137349
aF-0.72813017907384503
aF-0.73028243495964562
aF-0.73581135722867186
aF-0.74014561534127943
aF-0.7451719768168007
aF-0.74988699762533406
aF-0.75427994126352882
aF-0.75877761453332571
aF-0.76292751442414541
aF-0.76716266670459865
aF-0.77147512466470358
aF-0.77547229944812102
aF-0.77938152181798559
aF-0.78323751259688812
aF-0.78706673158266727
aF-0.79224587518602041
aF-0.79475425870825245
aF-0.79864507943458751
aF-0.80277116519448144
aF-0.80653344331896715
aF-0.81030897486985565
aF-0.81428531810617077
aF-0.81844240471364704
aF-0.82216301382313361
aF-0.82602036626026154
aF-0.82979930891870513
aF-0.83456869336088213
aF-0.83706024360553133
aF-0.84052373392863411
aF-0.84387210938482049
aF-0.84712132817554076
aF-0.85028510523305367
aF-0.85353659551586136
aF-0.85673759995486354
aF-0.8594560480629736
aF-0.86246839468572012
aF-0.86579445035478397
aF-0.86853387663562509
aF-0.87236523896936369
aF-0.87498218028673425
aF-0.87775312434879216
aF-0.88082088541655612
aF-0.88356150752864171
aF-0.8859697375158393
aF-0.89023183646979553
aF-0.89376103164626686
aF-0.89539813732704154
aF-0.89765130383766312
aF-0.90019432972050994
aF-0.9033296876953375
aF-0.90540080895973662
aF-0.90750986192733396
aF-0.9107098362254451
aF-0.91164666994301558
aF-0.91400145299174096
aF-0.91591752194929543
aF-0.91830949832216269
aF-0.91999280739344858
aF-0.92274926025026893
aF-0.92392198161219896
aF-0.92662607794246399
aF-0.92776809364381696
aF-0.92964225325481875
aF-0.93137553817249241
aF-0.93295869627113504
aF-0.93512445432355229
aF-0.93676278292233772
aF-0.93899774636984967
aF-0.93926983431908417
aF-0.94056574810590476
aF-0.94210472295670444
aF-0.94276339515176999
aF-0.94379521799135735
aF-0.94502289960929953
aF-0.94568209683609605
aF-0.94668585931613014
aF-0.94668585931613014
aF-0.94668585931613014
aF-0.9483703964198289
aF-0.9483703964198289
aF-0.95069878840257538
aF-0.95136976330705869
aF-0.95223367240410373
aF-0.95285126732861447
aF-0.9534052255060963
aF-0.95395778180168556
aF-0.95436141154950194
aF-0.95467536004719766
aF-0.9548801244886963
aF-0.95495927756108634
aF-0.95492088573864242
aF-0.95480162306221061
aF-0.95452864559320572
aF-0.95427299211044392
aF-0.95401788338218607
aF-0.95369180955759081
aF-0.95333202952529572
aF-0.95306624107383298
aF-0.95278188011997089
aF-0.95242514287709756
aF-0.95210003950842026
aF-0.95147963273964364
aF-0.95130221671864823
aF-0.95075520660851265
aF-0.95075520660851265
aF-0.94983692138345877
aF-0.94983692138345877
aF-0.94829403630913711
aF-0.94627771083839263
aF-0.94627771083839263
aF-0.94627771083839263
aF-0.94348808098294035
aF-0.94348808098294035
aF-0.94064239338750277
aF-0.93909798293822677
aF-0.93715542576977084
aF-0.93596364807278087
aF-0.9336689732754534
aF-0.93300419801733248
aF-0.93167097327110426
aF-0.93009578735868448
aF-0.92682038505726971
aF-0.92682038505726971
aF-0.92549919292826777
aF-0.92359994840448589
aF-0.92197001082219177
aF-0.91968091402656615
aF-0.91786863415359399
aF-0.91502213550456613
aF-0.91382620799806924
aF-0.91136850956972471
aF-0.9090733885618828
aF-0.90696592624606875
aF-0.90434391809430914
aF-0.90155671127259274
aF-0.89971701157816952
aF-0.89736725566621622
aF-0.89425142126034429
aF-0.8921208110469584
aF-0.88858767888735024
aF-0.88706032981085059
aF-0.88474587543289462
aF-0.88253062971204976
aF-0.87893589074644196
aF-0.87675420818774186
aF-0.87355031561703567
aF-0.87097917502245359
aF-0.8685036291609094
aF-0.8647799484300478
aF-0.86095649192443569
aF-0.85814978833642652
aF-0.85577994447428107
aF-0.85258061567599486
aF-0.84934340269747077
aF-0.84607695706760722
aF-0.84180560090065792
aF-0.83949501776753477
aF-0.83634926378379459
aF-0.83285712958235425
aF-0.82832833644713699
aF-0.82612871992579495
aF-0.82271730959403566
aF-0.81909869407297908
aF-0.8157910494695253
aF-0.81226882200755846
aF-0.80870609637471214
aF-0.80509884951529831
aF-0.80162538637108827
aF-0.7977266309217681
aF-0.79358167791476852
aF-0.79014228911855422
aF-0.78705266201691992
aF-0.7823730797675793
aF-0.77844206596686583
aF-0.77409657266772813
aF-0.77032835671452815
aF-0.76634845768569315
aF-0.76195193806140871
aF-0.75814182943648711
aF-0.75432335542257822
aF-0.75049612918267927
aF-0.74645613263545507
aF-0.74219590029337279
aF-0.73831913042830155
aF-0.7337969527565319
aF-0.72985928761972818
aF-0.72609629105500773
aF-0.72146160171221152
aF-0.71721721057042676
aF-0.71358714470621998
aF-0.7064823299860753
aF-0.70344438236725337
aF-0.69842542066014135
aF-0.69228123091253979
aF-0.69228123091253979
aF-0.69228123091253979
aF-0.68327083221254303
aF-0.68327083221254303
aF-0.67425871755062206
aF-0.67425871755062206
aF-0.66520863201122737
aF-0.66520863201122737
aF-0.65605362364227304
aF-0.65605362364227304
aF-0.65605362364227304
aF-0.64217082343686382
aF-0.63731707216258537
aF-0.63080718262295266
aF-0.62801218810823356
aF-0.62382783912816842
aF-0.61873641646046462
aF-0.61436562746302481
aF-0.60934560029105467
aF-0.60549097290139997
aF-0.60098409355345528
aF-0.59561509517778533
aF-0.59205480832813395
aF-0.5862848624817425
aF-0.5829578894548002
aF-0.57450267327892468
aF-0.5729399626324666
aF-0.56869481213526563
aF-0.56869481213526563
aF-0.56869481213526563
aF-0.55974076078241608
aF-0.55120023018575626
aF-0.54735234536531963
aF-0.54187547719177409
aF-0.53497350709020808
aF-0.53197086287946338
aF-0.52757768234211944
aF-0.52388455865228578
aF-0.51929156897506568
aF-0.51474850011373263
aF-0.51071073520112897
aF-0.50474199198550829
aF-0.50190358233620891
aF-0.49736306026271182
aF-0.49350151080672933
aF-0.48860215618337272
aF-0.48393429302307295
aF-0.47990943408745035
aF-0.47588742928016642
aF-0.47059965361562411
aF-0.46574079785305278
aF-0.46278424008211388
aF-0.45814400204589223
aF-0.45477525824275777
aF-0.44973007272151455
aF-0.44532879915089918
aF-0.44219859884224727
aF-0.43804764382980182
aF-0.43372440686309638
aF-0.42883350476552023
aF-0.42560288242675443
aF-0.42219959415064146
aF-0.41803936686145338
aF-0.41411904207455652
aF-0.41023005619462682
aF-0.40675897416514872
aF-0.40274752857891144
aF-0.3976532622812714
aF-0.39485293929931092
aF-0.38950042279603941
aF-0.3865800634084543
aF-0.38367979038216132
aF-0.37954001751437227
aF-0.37649813139405225
aF-0.3727598203795166
aF-0.36886272978788454
aF-0.36622030272110967
aF-0.36272053993533587
aF-0.35959389699924277
aF-0.35597435466292737
aF-0.35238673829569594
aF-0.34917249037673254
aF-0.34566650277409877
aF-0.34254301707330764
aF-0.33930981896730267
aF-0.33597228694075715
aF-0.33362401703238631
aF-0.32992802836789886
aF-0.32690581285485321
aF-0.3239304047644242
aF-0.32114378918746894
aF-0.31810517644075104
aF-0.31524420883389204
aF-0.31213302941564286
aF-0.30934503916156086
aF-0.30659337215526716
aF-0.30374355688536264
aF-0.30133599752609486
aF-0.29870336369958073
aF-0.29624613993164717
aF-0.29358689159133705
aF-0.29123261293361991
aF-0.28868852959676894
aF-0.28598208627324656
aF-0.28403314425282777
aF-0.28169103250163846
aF-0.27952609930264682
aF-0.27731946468621116
aF-0.27486957454630911
aF-0.27337540351658318
aF-0.27161394370794734
aF-0.26959081492304127
aF-0.26778785458158949
aF-0.26591895831328133
aF-0.26408031449397495
aF-0.26226964208047088
aF-0.26040236531450683
aF-0.25858433270718528
aF-0.25715592968919282
aF-0.25545798542338966
aF-0.25391561315064304
aF-0.25252533207818745
aF-0.25114638911188225
aF-0.24978493516433792
aF-0.24886918001318781
aF-0.24731844005700276
aF-0.24634750337456676
aF-0.24526702031323136
aF-0.2442795150310916
aF-0.24332328599969869
aF-0.24225842904453523
aF-0.24153735182007649
aF-0.24066533069614579
aF-0.23982639306207157
aF-0.23906406370783878
aF-0.23841781375326387
aF-0.23753994120668817
aF-0.2369473134872116
aF-0.23639977409813984
aF-0.23581992761341969
aF-0.23558453508687213
aF-0.23532840843558084
aF-0.23532840843558084
aF-0.23480581578698384
aF-0.2346880608606591
aF-0.23463735476393038
aF-0.23464172165056332
aF-0.23470738442950595
aF-0.23480997178858115
aF-0.23495896349113671
aF-0.2351490149753401
aF-0.23536544843899868
aF-0.2356731880435205
aF-0.23597770802624418
aF-0.23644039318279558
aF-0.23686069985822406
aF-0.23738274714138638
aF-0.23799682847817799
aF-0.23864197167164231
aF-0.23926947436804713
aF-0.24002419085635213
aF-0.24092154156998194
aF-0.24175541629547209
aa(lp1024
F0.34607967517437765
aF0.34607783301212841
aF0.34605639048037273
aF0.34603042202935536
aF0.34601314197869038
aF0.34601314197869038
aF0.34596859440364663
aF0.34596859440364663
aF0.34596453332835875
aF0.34590230024561935
aF0.34580913243305317
aF0.34573503011255247
aF0.34566167875519999
aF0.34558206567544769
aF0.34549665777035993
aF0.34538405293275537
aF0.34525358609364293
aF0.34508805739246445
aF0.3449876278863403
aF0.34484817303652765
aF0.34466327862876378
aF0.3444712677371129
aF0.34429420392668508
aF0.34408473479103663
aF0.3438496542711118
aF0.34362479119836981
aF0.34337565573214573
aF0.34308699082471394
aF0.34279137378416558
aF0.34254128687822072
aF0.34222021608502778
aF0.34191814522518027
aF0.34158863563228931
aF0.34123056739674568
aF0.34086004274256371
aF0.34053344639619054
aF0.34016069855889519
aF0.33975912727525309
aF0.33930743508628941
aF0.33882327194153927
aF0.33854703333533243
aF0.33807983489961746
aF0.33771898047730636
aF0.33737298781063596
aF0.33704866811815459
aF0.33674956847819304
aF0.33674956847819304
aF0.33674956847819304
aF0.33668448259973427
aF0.33668448259973427
aF0.33718882183359244
aF0.33718882183359244
aF0.33898478318185471
aF0.3400553914817161
aF0.34153696676205375
aF0.34293087399074285
aF0.34404221783733469
aF0.34404221783733469
aF0.34827180138964542
aF0.34827180138964542
aF0.35421891499932645
aF0.35421891499932645
aF0.36487533946427447
aF0.36987881094914293
aF0.37774597013457273
aF0.38144187258492435
aF0.3883157579798423
aF0.39495358734807245
aF0.40228464361134314
aF0.40987958775406813
aF0.41805835227231336
aF0.42557102015341386
aF0.43392739588598417
aF0.44227431918012428
aF0.44937368956301188
aF0.45716141425922813
aF0.46518104127308646
aF0.47373921486391379
aF0.47953908109721188
aF0.48727974686892983
aF0.49373392563260682
aF0.50091271900243539
aF0.50686605099088788
aF0.5137685920461823
aF0.51838159548885998
aF0.52393482210007014
aF0.52925687623487616
aF0.53386784457635272
aF0.53903040723281115
aF0.54373817625331888
aF0.54848462695110889
aF0.55344859812808611
aF0.55718155695307459
aF0.56078935525099571
aF0.56466291014347803
aF0.56989273309072308
aF0.57206591583954935
aF0.57560561368190777
aF0.58025657198019986
aF0.58244643519751116
aF0.58609234965336054
aF0.58886413366966239
aF0.59224551452025764
aF0.59558244154007567
aF0.59902587492344739
aF0.60179198595776773
aF0.60525602568748837
aF0.60761432959677897
aF0.61050121892469134
aF0.61317334428467796
aF0.61605292789745913
aF0.61857881545092286
aF0.6212765756932136
aF0.62374999583843149
aF0.62611807908983863
aF0.62827380533671795
aF0.63044115901269393
aF0.63269276626032012
aF0.63452269869084177
aF0.63634097916759524
aF0.63838232188978561
aF0.63973124417963045
aF0.64107912058691607
aF0.6425484835933406
aF0.64383884452037499
aF0.64502111072694734
aF0.6460968954231685
aF0.64702586917753435
aF0.64810611448332744
aF0.64888624473269418
aF0.64931417383032142
aF0.65002280824357972
aF0.65044159679509261
aF0.65079559980590618
aF0.65108926948431523
aF0.65128537317081081
aF0.65131802863393307
aF0.65131802863393307
aF0.65130554535182239
aF0.65130554535182239
aF0.65076696370651799
aF0.65036529627880546
aF0.64988749232085374
aF0.64936842628671765
aF0.64842583235077977
aF0.64809177844555532
aF0.64716008256692392
aF0.64634656952625724
aF0.6453042369157197
aF0.64421400579596066
aF0.64309774821431231
aF0.64182201576272191
aF0.64052415980998412
aF0.63906104723712642
aF0.63742618671212159
aF0.63577708214028938
aF0.63403312972684456
aF0.63220289095515103
aF0.63028564533791409
aF0.62754475902138296
aF0.62617360592826565
aF0.62398424374841976
aF0.62159136739436283
aF0.61935036776478281
aF0.617037101525024
aF0.61452066523226356
aF0.61178078380342527
aF0.60922243533297404
aF0.60645019867290872
aF0.60359482338700687
aF0.59976089860632908
aF0.59763774014348392
aF0.59453565799416253
aF0.59135199963565088
aF0.58809115961940783
aF0.58475522037131888
aF0.58117508561523457
aF0.5775149969379102
aF0.57431597722209404
aF0.57069846798073554
aF0.56663981598322433
aF0.56326215460299156
aF0.55849089751305336
aF0.55519750771518717
aF0.55166043138180332
aF0.54767575597638074
aF0.54404569598053076
aF0.54078293824529244
aF0.53478982939090147
aF0.52953812962243973
aF0.52699367927656959
aF0.52336471681601082
aF0.51905935833975692
aF0.51339768089453663
aF0.50943402690868045
aF0.50521045547820598
aF0.49845298652588982
aF0.49640215330535808
aF0.49110576768280673
aF0.48667242508136599
aF0.48099136258765729
aF0.47690522701949833
aF0.47006615528408457
aF0.46709584215058397
aF0.46007096282075743
aF0.45702423576659962
aF0.45189983268344019
aF0.44697564279529989
aF0.44225316270552162
aF0.43533166667736145
aF0.42965880238477494
aF0.42117014639004241
aF0.42006555902563886
aF0.41451288725185426
aF0.40722834855355233
aF0.40384166508878966
aF0.39816547705629979
aF0.39073669736640421
aF0.386429587146357
aF0.37950432137208195
aF0.37950432137208195
aF0.37950432137208195
aF0.36728239643396904
aF0.36728239643396904
aF0.35020907374936888
aF0.34516699110709537
aF0.33832043107366494
aF0.33294371102402148
aF0.32754836948516181
aF0.32122875875556295
aF0.31549089165160288
aF0.30942640085756301
aF0.30303688220967667
aF0.29632449591025756
aF0.29081485888931696
aF0.28497545118714174
aF0.27694535797077741
aF0.27104734258816904
aF0.26574849005417045
aF0.25918128093185955
aF0.25196253751507325
aF0.24660835634951478
aF0.24092026260499949
aF0.2339349907625945
aF0.22787927727958393
aF0.21764119047523525
aF0.21507722330657852
aF0.20801930646981664
aF0.20801930646981664
aF0.19838403686383238
aF0.19838403686383238
aF0.18587453865260878
aF0.17305543932523162
aF0.17305543932523162
aF0.17305543932523162
aF0.15834152731140247
aF0.15834152731140247
aF0.1452276716421616
aF0.13850170770019948
aF0.1301701100919678
aF0.12504420281843134
aF0.11511553642063935
aF0.11223300034088309
aF0.10647152507893197
aF0.099761091036762298
aF0.086394733992780998
aF0.086394733992780998
aF0.081329712739587806
aF0.074398703830628382
aF0.068752805773620765
aF0.061262704986325488
aF0.055679276306739203
aF0.04735842775960146
aF0.04398863537688439
aF0.037293359580457992
aF0.031252326361457715
aF0.025851697063795143
aF0.019290657758474522
aF0.012470502027522059
aF0.0080449085075978508
aF0.0024560256016629245
aF-0.004872544958758402
aF-0.0098375776134904409
aF-0.017981830914347276
aF-0.021461561147379599
aF-0.026671914766037443
aF-0.031584754939420083
aF-0.039364374626736809
aF-0.043967495877727657
aF-0.050574005322182231
aF-0.055728057276081149
aF-0.060575662512906817
aF-0.067652893229388042
aF-0.074658397013609351
aF-0.079651520567195044
aF-0.083764720916969265
aF-0.089180232697160258
aF-0.094517819737371556
aF-0.099770618649578521
aF-0.10647573621403007
aF-0.1100291426914097
aF-0.11478559627638543
aF-0.1199526482018678
aF-0.12645883972270597
aF-0.12954378682505416
aF-0.13423217821749567
aF-0.13909055489169034
aF-0.14343330704194443
aF-0.14794838456156922
aF-0.15241399141679976
aF-0.15683357739977138
aF-0.16099407662383861
aF-0.16554750901297774
aF-0.17027271455086393
aF-0.17409942542800105
aF-0.17747351115180873
aF-0.18249255612768298
aF-0.18663418976728785
aF-0.19115775219642023
aF-0.1950374524327429
aF-0.19909259800617102
aF-0.20351167337768947
aF-0.20728822573322483
aF-0.21102520570846436
aF-0.21471617857585865
aF-0.21854878953015308
aF-0.22251334439514717
aF-0.22604928171497995
aF-0.23006951980197554
aF-0.23347574147502817
aF-0.23663747259322693
aF-0.24041904969156905
aF-0.24376057394041398
aF-0.24653375067047972
aF-0.25174646072746898
aF-0.25388693365118359
aF-0.25730996584349264
aF-0.26131649747485552
aF-0.26131649747485552
aF-0.26131649747485552
aF-0.26690480356128543
aF-0.26690480356128543
aF-0.27217785182066662
aF-0.27217785182066662
aF-0.27713362524178264
aF-0.27713362524178264
aF-0.28181051117186601
aF-0.28181051117186601
aF-0.28181051117186601
aF-0.28832673086319166
aF-0.29044770682132415
aF-0.2931615306393261
aF-0.29428060131324424
aF-0.29591428124532831
aF-0.29782477085539943
aF-0.29940293310510746
aF-0.301128909824601
aF-0.30239053951983691
aF-0.30378665873126898
aF-0.30534638320478535
aF-0.30631219874206028
aF-0.30775126556802496
aF-0.30852099808601946
aF-0.31026538097429307
aF-0.31055430976468679
aF-0.31129018590419827
aF-0.31129018590419827
aF-0.31129018590419827
aF-0.31260916275682116
aF-0.31359271561245328
aF-0.31394235934052683
aF-0.314337272249547
aF-0.31469213895958958
aF-0.31479544492255507
aF-0.31489509207826749
aF-0.31493533151777447
aF-0.31492885672515147
aF-0.31485107515272476
aF-0.31471634020722383
aF-0.31439510311143193
aF-0.31418644020634623
aF-0.3137675795055721
aF-0.31333410624894475
aF-0.31267796334129272
aF-0.31194205525618512
aF-0.31122573871727
aF-0.31043316766180834
aF-0.30928230475007867
aF-0.30810617056287254
aF-0.30733234813003718
aF-0.30603699261638329
aF-0.30503645398236207
aF-0.30343408768345587
aF-0.30193859741664625
aF-0.3008121735283224
aF-0.29924261190351498
aF-0.29751426130078418
aF-0.29543402492593263
aF-0.29398938604524361
aF-0.29239734507405768
aF-0.29034629128032663
aF-0.28829185010412284
aF-0.28613815515416924
aF-0.28410821404009229
aF-0.28164369783693716
aF-0.27832328140543094
aF-0.27641860998110862
aF-0.27263196230103454
aF-0.27048607935869229
aF-0.26830276606336639
aF-0.26510355141690967
aF-0.26270020930975052
aF-0.2596883998692095
aF-0.25647973082886794
aF-0.25425782642973355
aF-0.25124438408902744
aF-0.24847623047536457
aF-0.2451851833026247
aF-0.24182226076105745
aF-0.2387138213362579
aF-0.23520110448866111
aF-0.23195187739644643
aF-0.22845456333246039
aF-0.22469414598144644
aF-0.22195515071066563
aF-0.21747484988394788
aF-0.21364567353118696
aF-0.20972939048420031
aF-0.20592872754983599
aF-0.20164931079275414
aF-0.19749933791616725
aF-0.19285132486380416
aF-0.18855226389907098
aF-0.18418915661757523
aF-0.17953885269856268
aF-0.17550254869910425
aF-0.17096671270379629
aF-0.16660744547568904
aF-0.16172823652837456
aF-0.1572614748973547
aF-0.15227175076491967
aF-0.14673456908790469
aF-0.14259449732356669
aF-0.13741944748563883
aF-0.13243563362848693
aF-0.12715273242608402
aF-0.12105054841821442
aF-0.11719915231649651
aF-0.11253584182420356
aF-0.10704234898063407
aF-0.10202062154119282
aF-0.096690705349228745
aF-0.091317640295139821
aF-0.085904168733080252
aF-0.080172792624764372
aF-0.074391310051362777
aF-0.069682412836638924
aF-0.063835996358323807
aF-0.058240347666021229
aF-0.052897321034586629
aF-0.047240436472345111
aF-0.041259118995545449
aF-0.036962291013464682
aF-0.029194585435404489
aF-0.023994412984540473
aF-0.017905658141316515
aF-0.012083650211198248
aF-0.0062337848528125281
aF0.00052857035698299635
aF0.0052530576056044878
aF0.0111895814630279
aF0.017160759120659598
aF0.022866615306019949
aF0.028004316160252684
aF0.03561402242110618
aF0.041439014725428228
aF0.047610963213789471
aF0.055376981792227636
aF0.059125470721352477
aF0.063828509906650691
aF0.063828509906650691
aF0.078688694083670976
aF0.0853847566016772
aF0.091790207854747924
aF0.098211429498295047
aF0.10497241114467838
aF0.11110483959064198
aF0.11757628816859851
aF0.12406463198087192
aF0.13024154907672569
aF0.137403409394355
aF0.14326985740836076
aF0.15076962212561362
aF0.15664317915352458
aF0.16317016071687696
aF0.17001889732798733
aF0.17654128871997304
aF0.18241020504797545
aF0.18892721630888987
aF0.1960910677172118
aF0.20227579499643422
aa(lp1025
F0.039994058273917311
aF0.040444691961473628
aF0.041621756649520739
aF0.044018783303505241
aF0.04611631456343971
aF0.04611631456343971
aF0.05246834085737407
aF0.05246834085737407
aF0.053024794777923781
aF0.062264121457050507
aF0.075493622860429446
aF0.085598229394852315
aF0.095117036228066484
aF0.10484776361729567
aF0.11484207880377284
aF0.12752412777102445
aF0.14078839958613901
aF0.15614695744323642
aF0.16468405840941353
aF0.17626084404201317
aF0.19081739170695608
aF0.20529910984318236
aF0.21824873679672629
aF0.23303126996662538
aF0.24917848464383952
aF0.26400612576793092
aF0.27982539958767477
aF0.29747016504197776
aF0.31636634279891218
aF0.33197198448370868
aF0.35136584894500145
aF0.36915232699627759
aF0.38812965608277566
aF0.40833870266240907
aF0.42895952306572099
aF0.44669928612802562
aF0.4665849341595722
aF0.48735582053884263
aF0.50998551528130787
aF0.53342625687170442
aF0.54545751349060945
aF0.56326583927515139
aF0.5758900337824604
aF0.58733243346201891
aF0.59778799799165905
aF0.6083976685974658
aF0.6083976685974658
aF0.6083976685974658
aF0.61719257374059222
aF0.61719257374059222
aF0.62001466107378034
aF0.62001466107378034
aF0.61448130839567827
aF0.60994688692854626
aF0.60382523357232487
aF0.59853292202827169
aF0.59442691578641804
aF0.59442691578641804
aF0.58109503104361904
aF0.58109503104361904
aF0.56727570965753604
aF0.56727570965753604
aF0.55171668082995273
aF0.54718858309430984
aF0.5423704482545465
aF0.54108463519488237
aF0.53975991664324952
aF0.53986028991064205
aF0.54122236949102076
aF0.54378420716059483
aF0.5479193311766688
aF0.55273368943983037
aF0.55925575736532573
aF0.56692197423829416
aF0.57406654091904963
aF0.58262830135763
aF0.59227142144247391
aF0.60326073691253901
aF0.61097012351290902
aF0.62160102094498115
aF0.63057927791968071
aF0.64074118851678474
aF0.64904063935621625
aF0.65832378385570878
aF0.66416649301786612
aF0.67073039930262845
aF0.67646495130361328
aF0.68071597191159516
aF0.68467699304171892
aF0.68760654031732826
aF0.68967173809851523
aF0.69103928797716119
aF0.69146367170219203
aF0.69148719510422885
aF0.69121176425953001
aF0.68984302108921147
aF0.68914404411735619
aF0.68782548453308301
aF0.68572866073993211
aF0.68467265250223608
aF0.68316307279744504
aF0.68226101758298385
aF0.68162503222848403
aF0.68123613143359452
aF0.68127900277518016
aF0.68181728830747435
aF0.68303779909529183
aF0.68439338531700655
aF0.68638502779608412
aF0.68898219732565824
aF0.69227911335890102
aF0.69578801774686516
aF0.70005316889748825
aF0.70452457185252659
aF0.70935736274439354
aF0.71403297429982793
aF0.71901663575747565
aF0.72452087990706548
aF0.72929329106403984
aF0.73426647233623232
aF0.74023309705405038
aF0.74436547521504492
aF0.74847268185426252
aF0.75286634815544062
aF0.75667785799880771
aF0.76028771508816839
aF0.76363912007742474
aF0.76656837409410417
aF0.76996330886155684
aF0.77256524207813115
aF0.77394163059666443
aF0.7761793022756458
aF0.77744749401638102
aF0.77874937696298985
aF0.77992489297552003
aF0.78104887970184611
aF0.78133400397450925
aF0.78133400397450925
aF0.7833312804048651
aF0.7833312804048651
aF0.78628268039103077
aF0.78773413137566817
aF0.78936191863325011
aF0.79118454261807958
aF0.79416704602730437
aF0.7952881127026401
aF0.79809361829750392
aF0.8003533351192279
aF0.80320005661548943
aF0.8062230046254989
aF0.8090328618655378
aF0.81244960387869647
aF0.81576529960173705
aF0.81936791178554202
aF0.82318641938663506
aF0.82682369648538712
aF0.83046793134333452
aF0.83396580528089426
aF0.83736985825748589
aF0.84188264330289919
aF0.8437656533051322
aF0.84698332567663015
aF0.85021298193145067
aF0.85287877519696487
aF0.85533446827325632
aF0.85780032838125142
aF0.86043125767015105
aF0.86261815541263176
aF0.86462908144709871
aF0.8664827632584593
aF0.86870231779265428
aF0.86985095495620102
aF0.87144635899959677
aF0.87313746946254067
aF0.87478192637826235
aF0.87647284974584161
aF0.87831029999054022
aF0.88018624374319931
aF0.88199360015817241
aF0.88403484296871515
aF0.88632808817926623
aF0.88822897417935742
aF0.89093452270690843
aF0.89264595285269621
aF0.89454834282558704
aF0.89669032470873111
aF0.89864677898730505
aF0.90037391848560122
aF0.90355490046705444
aF0.9062638934165268
aF0.90751462756160839
aF0.90919286599001592
aF0.9112991891918204
aF0.91396706982629294
aF0.91561625443626282
aF0.91739292364188152
aF0.9202468232823362
aF0.9211029413748677
aF0.92340862079051811
aF0.92512383141182275
aF0.92728886097268826
aF0.92889434817371608
aF0.93144164770707738
aF0.9323802732066272
aF0.93458314004052334
aF0.93547256099698262
aF0.937002875772042
aF0.93846044819721741
aF0.93979017326462633
aF0.94178222907506359
aF0.94329693458671837
aF0.94517666931134359
aF0.94536822570450996
aF0.94644813976929387
aF0.94787597929906453
aF0.94856272202388603
aF0.94969389112628788
aF0.95137563928654045
aF0.95238105756219216
aF0.95413245023228577
aF0.95413245023228577
aF0.95413245023228577
aF0.95732555673894104
aF0.95732555673894104
aF0.96169572881561272
aF0.96280116608200816
aF0.96405452339779674
aF0.96496524651941362
aF0.96578893137125776
aF0.9667733546860745
aF0.96760583819391033
aF0.96845257928567385
aF0.96926697952659702
aF0.97002769505999931
aF0.97086265097406865
aF0.97160315467211178
aF0.97246218575079024
aF0.97287949347165248
aF0.97338857580782323
aF0.9737416015219581
aF0.97419993166702701
aF0.97445338722700037
aF0.97471815867132827
aF0.97515047986377901
aF0.97548973856286303
aF0.97586649289567018
aF0.9759304560434664
aF0.97606351412039494
aF0.97606351412039494
aF0.97646110622539017
aF0.97646110622539017
aF0.97675046894191886
aF0.97734725855876436
aF0.97734725855876436
aF0.97734725855876436
aF0.97789971948909105
aF0.97789971948909105
aF0.97839906939581101
aF0.97852110255104496
aF0.97848619663575831
aF0.97863848767293304
aF0.97868689989613711
aF0.978755801198813
aF0.97885156970251175
aF0.97885178337096512
aF0.97878111382661215
aF0.97878111382661215
aF0.97869871138547415
aF0.97852125411383351
aF0.97827169858306762
aF0.97779726470550388
aF0.9775748115882491
aF0.97703112832120809
aF0.9766481896083703
aF0.97607846394486397
aF0.97554526522637763
aF0.9749475942066903
aF0.97406725931121607
aF0.97331674002305479
aF0.97289823987966606
aF0.97228860365637515
aF0.97147187930161238
aF0.9707612793515622
aF0.96970430460524071
aF0.96926001476952994
aF0.96863846650640628
aF0.96799959079382991
aF0.96704068689462386
aF0.96660388691734034
aF0.96561993720860306
aF0.96490359495383948
aF0.96421976157723543
aF0.96326762802709831
aF0.96249222436187509
aF0.96177338812667823
aF0.96120524334393631
aF0.96046228785980592
aF0.95967367145340376
aF0.95904363257785219
aF0.95821420264508961
aF0.95769468562209548
aF0.95690549965892491
aF0.95594154405259557
aF0.95463466126030894
aF0.95390884400160902
aF0.95283571945848211
aF0.95164970807221771
aF0.95050463189438961
aF0.94948594166015465
aF0.94839561400226458
aF0.94727117665057403
aF0.94608971891648275
aF0.94485644439445182
aF0.94330486381571854
aF0.94205596628222721
aF0.94088897275183303
aF0.93899493226642849
aF0.93739835379476899
aF0.9356127222080538
aF0.9340253369765521
aF0.93235360546309554
aF0.93071287113953982
aF0.92928294083005536
aF0.92774670514236779
aF0.92623177305164528
aF0.92443249756841173
aF0.922741447826676
aF0.92101422313319814
aF0.91903948799069513
aF0.91716733491539171
aF0.91548263339336355
aF0.91316354806991729
aF0.91133133822682921
aF0.909861067874844
aF0.9066329324044986
aF0.90523062486726691
aF0.9029029023662789
aF0.90023666688631188
aF0.90023666688631188
aF0.90023666688631188
aF0.8960848905070623
aF0.8960848905070623
aF0.89205201018188829
aF0.89205201018188829
aF0.88834689343191542
aF0.88834689343191542
aF0.88461829701420203
aF0.88461829701420203
aF0.88461829701420203
aF0.87882418574685839
aF0.87670415734677765
aF0.8736512894698778
aF0.8724233701946702
aF0.87028991034999714
aF0.86759557396432307
aF0.8650148596311118
aF0.8621947653702815
aF0.85992906912413292
aF0.85735639500355543
aF0.85412075106914853
aF0.85191890394558789
aF0.84866457163504194
aF0.84661657173639748
aF0.84183906901567351
aF0.84109765066292219
aF0.83903329613598654
aF0.83903329613598654
aF0.83903329613598654
aF0.83491769334947086
aF0.83108038234207604
aF0.82944475927237316
aF0.82739551903957698
aF0.82480908385973517
aF0.82366477419657846
aF0.82194782563711166
aF0.82038219367320897
aF0.8182507811167905
aF0.81626085525646963
aF0.81442777031202207
aF0.81142715545482913
aF0.8098700124716256
aF0.80747934117796516
aF0.80521395599587164
aF0.80230476639869375
aF0.79959935220982492
aF0.79717581193621123
aF0.79473976611887898
aF0.791418642052652
aF0.7882687647180413
aF0.78638579313850776
aF0.78327058468597965
aF0.78092675993414573
aF0.77786030531264372
aF0.77524088184382478
aF0.7734402560210154
aF0.77100046213991691
aF0.76861756625033506
aF0.76603537761875529
aF0.76426840951891539
aF0.76243078641728335
aF0.76016927818921831
aF0.75823343868351367
aF0.75631026329553364
aF0.75483670840122186
aF0.75306088810578831
aF0.75091397455653042
aF0.74962273093454501
aF0.74705805114465296
aF0.74558983347859376
aF0.74393303807543043
aF0.74159355024761842
aF0.73979694323968637
aF0.73756140174846974
aF0.73503984901337072
aF0.73319400072605911
aF0.73079463831985036
aF0.72878720942464847
aF0.72642010323255835
aF0.72401637067500646
aF0.72186635603466653
aF0.71950068428594172
aF0.71733194482726392
aF0.71513439022091296
aF0.7130749514012078
aF0.71166225684103912
aF0.70949976924663671
aF0.70775776109015265
aF0.70613162547032104
aF0.70459387757374314
aF0.70291552041595562
aF0.7013659956274565
aF0.69962368446805545
aF0.69813000373092238
aF0.69644708171907377
aF0.69471016228194127
aF0.69328779162121246
aF0.69184301361707923
aF0.69047496152019849
aF0.68903235487839498
aF0.68766605801369463
aF0.68600797556152604
aF0.68446792598229134
aF0.68324158843024352
aF0.68183791835943031
aF0.68048521769003167
aF0.67902105870865048
aF0.6772883669554427
aF0.6763454456291097
aF0.6752266357490373
aF0.67359010019241916
aF0.67217593692243427
aF0.67074958416089969
aF0.66921293355121403
aF0.66755491295084124
aF0.66581194382732334
aF0.66415976635692109
aF0.66284081241087744
aF0.66125015178067681
aF0.65969099242748042
aF0.65827115031564143
aF0.65704304478262132
aF0.65572863404591397
aF0.65493626800904681
aF0.65345085041579376
aF0.65258100109793626
aF0.65156030164217726
aF0.65059572779940789
aF0.64962332997452121
aF0.6486365371412246
aF0.64791371570488343
aF0.64711663049013057
aF0.6463759239623964
aF0.64569488982328516
aF0.64513513430990033
aF0.64410879545947097
aF0.6434986408861697
aF0.64278865135085583
aF0.64163787746781886
aF0.64115127649166892
aF0.64042731774867212
aF0.64042731774867212
aF0.63863014039539689
aF0.6377884407027794
aF0.63700906076739994
aF0.63603534265495476
aF0.63531242719846148
aF0.63461120062549259
aF0.63396347353851112
aF0.63338485941555656
aF0.6327602402140341
aF0.63213160800132673
aF0.63167115791060546
aF0.63122266003777727
aF0.63099650250253014
aF0.63076550062619641
aF0.6307519929875276
aF0.63082030277383583
aF0.63070744035715676
aF0.63068913596790332
aF0.63059365762479214
aF0.63057003062630756
aa(lp1026
F-0.091268594506860312
aF-0.091271648819735471
aF-0.091295608947167789
aF-0.091371459103964603
aF-0.091507388510477933
aF-0.091811662987397902
aF-0.091935791261330807
aF-0.092214274687569028
aF-0.092717811870675765
aF-0.092905664596067222
aF-0.093327234674248361
aF-0.093775860804629019
aF-0.094278857033139332
aF-0.094774030225947534
aF-0.095324763616997529
aF-0.095898092265421134
aF-0.096506641219261058
aF-0.097429959169191532
aF-0.097784758805417343
aF-0.098452013816536704
aF-0.099144468989470921
aF-0.099874616214208164
aF-0.10061672269671555
aF-0.10137127945731908
aF-0.102148140192052
aF-0.10292613277024822
aF-0.10373074863696681
aF-0.10454669958307505
aF-0.10539058875349391
aF-0.10621355546459885
aF-0.10707577883464722
aF-0.10792798206109416
aF-0.10880217301129108
aF-0.10968203150118282
aF-0.11059615322297413
aF-0.11147296572236907
aF-0.11237656795785456
aF-0.11329631560744864
aF-0.11419315174928964
aF-0.11563880713514713
aF-0.11458442004769272
aF-0.10757626170487876
aF-0.10049570699230669
aF-0.094168885124875881
aF-0.087259396900449357
aF-0.077934180218347179
aF-0.075189967484967063
aF-0.069847916009620314
aF-0.064155929328226349
aF-0.059150035361474833
aF-0.055033112888970184
aF-0.051989061506360776
aF-0.048341154991332708
aF-0.045250090493104987
aF-0.04192272870478158
aF-0.040913419779965973
aF-0.03599805248433114
aF-0.03346661175788615
aF-0.030423987663173443
aF-0.028302992075574698
aF-0.026454943451979247
aF-0.023960204414306904
aF-0.021208615973064029
aF-0.019677367005890321
aF-0.018586480047339621
aF-0.018198080888892184
aF-0.016781379057510905
aF-0.015416213554411865
aF-0.015156605282399578
aF-0.015195773516072458
aF-0.0147845523154398
aF-0.014582717994325421
aF-0.013204500921290392
aF-0.012724000081612844
aF-0.012101465370860806
aF-0.01096351224152946
aF-0.0096830487849598502
aF-0.0075736020578460687
aF-0.0085556926440832279
aF-0.008838544798836211
aF-0.0081038967278269924
aF-0.0081441687169360334
aF-0.0083982483289431545
aF-0.0055838810664881637
aF-0.0055918804325827583
aF-0.0072728796760597328
aF-0.0059154924758788663
aF-0.0069145529118355229
aF-0.0072011340122632682
aF-0.0079392098628786635
aF-0.008878911454999628
aF-0.0087877543637186577
aF-0.0086346668136743857
aF-0.0082382422816998299
aF-0.0078365829737075884
aF-0.0074553977568926318
aF-0.007414653992957672
aF-0.0071706787886333407
aF-0.0076931769504933268
aF-0.0069740001809417852
aF-0.0063352753232972072
aF-0.0064172398274795492
aF-0.0056229478711742149
aF-0.0048088574967884703
aF-0.0051412704552494491
aF-0.0045267876456056974
aF-0.0041180626383463389
aF-0.0039914966877632983
aF-0.0035397010315813887
aF-0.0024414828378775399
aF-0.0020765910174622292
aF-0.0021933672502959761
aF-0.0012437014305535083
aF-0.0016404927973637619
aF-0.001770097326325312
aF-0.0012621189840042501
aF-0.0021896122971886943
aF-0.0026645891581989281
aF-0.0027599989848456187
aF-0.0031180071580214552
aF-0.0030372145487484767
aF-0.0038250735666199155
aF-0.0042273906025805958
aF-0.0045788909359168765
aF-0.0039405590505776798
aF-0.0036614810944320423
aF-0.0022888912495714303
aF-0.0019059120400612228
aF-0.0014549895834261822
aF-0.0010676779907881609
aF-0.00071865863647715468
aF-3.9720802213387426e-05
aF-0.00010721594940321878
aF-0.00033746912843583214
aF-0.00022754964140354634
aF-0.00040550359663023066
aF-0.00073939754833607775
aF-0.0011992461459235753
aF-0.00087077279334077276
aF-0.00044409508297768243
aF-0.00054144018769678999
aF-0.00068633198302164736
aF-0.00062842090793577743
aF-0.00071401364401044707
aF-0.0001559099578946018
aF4.0364282985198414e-05
aF-0.00021910790513642581
aF0.00031552607245121902
aF0.00086949966450032253
aF0.001162802190807197
aF0.00033990791040184242
aF0.00063537750602347129
aF0.00084551274941251997
aF0.00050748153534134271
aF0.0013023462403293571
aF0.00051447174803556899
aF0.000308217268708619
aF0.00027544972425331106
aF-0.00027312472480457711
aF3.9431315107468441e-05
aF0.00010457676391499421
aF-8.5050901441590083e-07
aF0.00022939244679870852
aF0.00044611498273366257
aF0.00076341521721283554
aF0.00079856062122347503
aF0.0012752202281363539
aF0.0012344072844308895
aF0.00052312019462728994
aF0.00042608626883828789
aF3.037010211602094e-05
aF0.00010926875668865978
aF-0.00046328125358727126
aF-0.00095633145967884061
aF-0.00071170112812932282
aF-0.00029335668678509796
aF-0.00055435954234770476
aF-0.00026560517958533594
aF-2.0687096113287583e-05
aF-0.00056290629987827137
aF-0.00040569426361989518
aF-0.00098939594399494917
aF-0.00087841481731253915
aF-0.000372143895445726
aF-0.00049833631427919332
aF-0.00045255367531200512
aF-0.00047913141831818987
aF4.9727007456444208e-05
aF-0.00039606657217520336
aF0.00011413990816309961
aF-0.0001261146078462956
aF-0.00030574214135566157
aF-0.00078088636019416351
aF-0.0008130994912067199
aF-0.00079464942846532759
aF-0.00053196450969517951
aF-0.00080209522635872838
aF-0.0012189530178415113
aF-0.0015290345643317669
aF-0.0016603154023564133
aF-0.0014058551715743584
aF-0.0012234103016640038
aF-0.0012864800160088572
aF-0.00099874639620897449
aF-0.00013848096320860211
aF-0.00013848096320860211
aF0.000101359896459235
aF-0.00058257988228258126
aF-0.00034890827006485377
aF-0.00040590017746687464
aF0.00054512137722358589
aF0.00025757636007341127
aF0.00025757636007341127
aF0.00080950604425538927
aF0.00041809818346754811
aF0.00023754959673547555
aF-0.00015222693159288412
aF-0.0001649839348462909
aF0.00013407028145425692
aF-3.53373266716553e-05
aF-0.00016720401055945078
aF-0.00067116477346871185
aF-0.00027930340807629791
aF4.149476105827477e-05
aF-2.0983020058755342e-05
aF0.00014787333615292104
aF0.00067227535585591023
aF0.00016732554654254724
aF0.00014893907197366716
aF0.00015379800808214511
aF-0.00022108172297290906
aF-0.00048110723547604815
aF0.00030451290005758939
aF-0.00077342066661488474
aF-0.00082348503923505324
aF-0.00077429263080870919
aF1.6744583701344563e-05
aF0.00049952615431699725
aF0.0009014851654597448
aF0.0013218572762804153
aF0.00058059571023702592
aF0.00057978564373259976
aF0.00050950345067334317
aF0.0011029096744561864
aF0.00066919516558536782
aF0.00047510920633247143
aF0.0001817619147323714
aF-0.0008759730444917891
aF-0.0008915931734820655
aF-0.00033305443178409166
aF-0.00044933587321413981
aF3.1664855730245677e-05
aF-0.00017658680951767317
aF-0.00017658680951767317
aF-0.00016348116037668639
aF-0.00032679177701462088
aF-0.00030493496817810326
aF-0.00042291810842724564
aF-0.0001209437125847366
aF0.00065918522990120892
aF0.00076540010446278517
aF0.0013759431131726172
aF0.0015439057442840399
aF0.0021844191330630397
aF0.0023108657095308118
aF0.0018835793277188746
aF0.0018835793277188746
aF0.0019041582288492165
aF0.00112132930850153
aF0.001294963250385493
aF0.0012886841459149531
aF0.0009083132868307884
aF0.00076175834870554824
aF0.0011560593738148201
aF0.00053285549182403445
aF-7.1295718959218157e-05
aF-0.00072330388901818774
aF-0.0013390063172099792
aF-0.00063978166966504105
aF-0.0008223938974036639
aF-0.0011912760381905651
aF-0.0014460079166052945
aF-0.0012008355901620537
aF-0.00084219738693341276
aF-0.0007932517890416864
aF-0.00070640790040704638
aF-0.00040061709264328121
aF-0.00081017625579143753
aF-0.0010939801525375024
aF-0.0010986516075667996
aF-0.00080364546439268237
aF-0.00096403837219474515
aF-0.0020280486648117301
aF-0.0037086315292940543
aF-0.0036459044628726562
aF-0.0035398344497102174
aF-0.0046026565277539309
aF-0.0051846472116527645
aF-0.0057770538722759814
aF-0.0061250692096545406
aF-0.0060734033643583532
aF-0.0064891498582495431
aF-0.0066123897182875611
aF-0.0073071819191080642
aF-0.0077193872409872894
aF-0.0080127750066542498
aF-0.007807974797935254
aF-0.0073155844004067251
aF-0.0079234311535685952
aF-0.0080197496799075448
aF-0.0081041281939764221
aF-0.0079204220936259957
aF-0.0086556875810832479
aF-0.0085917212605022553
aF-0.0079146343995929267
aF-0.008259265129703295
aF-0.0084153190875008322
aF-0.0085583240761056313
aF-0.0080623129238216254
aF-0.0087036208396641199
aF-0.0087787193816611028
aF-0.009128667071275921
aF-0.0087383027912272485
aF-0.0083878339126647224
aF-0.0080403787753826512
aF-0.0086016821071575322
aF-0.0082347234760798329
aF-0.0079951804584056131
aF-0.0085720554803277015
aF-0.0080669193602696219
aF-0.0077915719102446962
aF-0.0069768173060323849
aF-0.0076770981154119719
aF-0.007654489854322071
aF-0.0077694759955754455
aF-0.0080329479317629501
aF-0.0088004959250590053
aF-0.0098312526593254592
aF-0.0098312526593254592
aF-0.010195052947797894
aF-0.010655109864919878
aF-0.010445420258887063
aF-0.010325320016102897
aF-0.010738645738175097
aF-0.010187938354557637
aF-0.010102055570591786
aF-0.0093803670032074331
aF-0.0093035285639748427
aF-0.0095763028386262085
aF-0.0092385079020794788
aF-0.0087247180689245928
aF-0.0090720853010847462
aF-0.0089028122854857873
aF-0.0080641256418682895
aF-0.0085163792889368841
aF-0.0082078338714484389
aF-0.0077749157101613935
aF-0.0074469354584991761
aF-0.0081594709700823307
aF-0.0085613014069805555
aF-0.0088148208188911885
aF-0.0096146513180260483
aF-0.0097354953733802974
aF-0.0096884843383565934
aF-0.0099320335409362418
aF-0.010191953902138774
aF-0.01097561714092171
aF-0.010812978101210033
aF-0.010750991986541137
aF-0.010505492226522466
aF-0.010461984912807896
aF-0.010801944708037617
aF-0.010540677161830535
aF-0.010721161461440346
aF-0.010530112942740786
aF-0.010515274142042001
aF-0.010528736629411813
aF-0.0105803395367213
aF-0.010775193462947232
aF-0.010870541912053173
aF-0.010550646330864218
aF-0.010604210198585737
aF-0.010143745484921834
aF-0.0097765933585461842
aF-0.0093094332914542537
aF-0.0083843671219097655
aF-0.0087909147869185238
aF-0.0087331096271015939
aF-0.009033408087737848
aF-0.0094111785286628905
aF-0.0098971003575749686
aF-0.0095815698638602211
aF-0.0099725957729922109
aF-0.010371826506935708
aF-0.010448395509167388
aF-0.010500606990397851
aF-0.010190723230431912
aF-0.010434403510471464
aF-0.010485751544942253
aF-0.010291288770501427
aF-0.010259735513070493
aF-0.010193254273764789
aF-0.0098294290181571344
aF-0.009831944457030499
aF-0.0098713030651094279
aF-0.01071513189828484
aF-0.010821406589941213
aF-0.011195662906584108
aF-0.011188735566858002
aF-0.01107671115202004
aF-0.01078432415235646
aF-0.011031580974516203
aF-0.010345841960956019
aF-0.0099262120372408981
aF-0.010009042588926166
aF-0.0095859224677668185
aF-0.0094267049658775127
aF-0.0091751756427033322
aF-0.0085617450937793532
aF-0.0078629758363778449
aF-0.0077195677325689804
aF-0.0074045324203694191
aF-0.0077691701481690072
aF-0.0080543848180921352
aF-0.0079196595557045005
aF-0.007240373506301254
aF-0.0079053960394130651
aF-0.0084442206271119966
aF-0.0089270272857567938
aF-0.0086645498737888665
aF-0.0089631422468517893
aF-0.0093719790860709862
aF-0.0090049767625066512
aF-0.0085515855503396198
aF-0.008163675851772214
aF-0.007932525432572295
aF-0.0078331224247364366
aF-0.0079213703246156855
aF-0.0081334094421023836
aF-0.0083684479724640878
aF-0.0088291540351017796
aF-0.0088110643053379567
aF-0.0079961406528142615
aF-0.0074956281341096416
aF-0.0070295073240212221
aF-0.0070931230644118402
aF-0.0066642677842331148
aF-0.0065619103320629507
aF-0.0072229932592965838
aF-0.0080671497861217519
aF-0.0091265719125120867
aF-0.0093575980161845571
aF-0.0090284864412077063
aF-0.009455189346271051
aF-0.0093139284160910617
aF-0.0095386513584179138
aF-0.010037015143047705
aF-0.0097496236510226271
aF-0.0095967478014790716
aF-0.009467271359122684
aF-0.0089836142574344722
aF-0.009308752937019521
aF-0.0095180961240511654
aF-0.0097999563553278247
aF-0.0094168200609251948
aF-0.0095118012850839498
aF-0.0088594776611231538
aF-0.0085554611779337965
aF-0.0087976944044279182
aF-0.0086699245697935134
aF-0.0085673439738523233
aF-0.008946302954443543
aF-0.0085828771729994004
aF-0.0084351102235001325
aF-0.0086023650623355159
aF-0.0079293873757643948
aF-0.007543625370974515
aF-0.0080215332696297863
aF-0.008259224037959912
aF-0.0091510501080001964
aF-0.0091510501080001964
aF-0.0088160598129764563
aF-0.0085749022538913755
aF-0.0091593620834336861
aF-0.0087262514671459894
aF-0.008899752771124099
aF-0.0092724226343832566
aF-0.0095943623997683091
aF-0.0091596679308401253
aF-0.0099148436683376209
aF-0.009904684124897891
aF-0.010428936748155695
aF-0.010044658207316773
aF-0.0095471370635006395
aF-0.0097489401756959953
aF-0.0089740965774293413
aF-0.0092629819363783863
aF-0.009039212946676381
aF-0.009094456894538713
aF-0.009778334816227743
aF-0.010165428401562664
aas.