(dp1
S'tiempo'
p2
(lp3
(lp4
F0.02
aF0.040000000000000001
aF0.059999999999999998
aF0.080000000000000002
aF0.10000000000000001
aF0.12000000000000001
aF0.14000000000000001
aF0.16
aF0.17999999999999999
aF0.19999999999999998
aF0.21999999999999997
aF0.23999999999999996
aF0.25999999999999995
aF0.27999999999999997
aF0.29999999999999999
aF0.32000000000000001
aF0.34000000000000002
aF0.36000000000000004
aF0.38000000000000006
aF0.40000000000000008
aF0.4200000000000001
aF0.44000000000000011
aF0.46000000000000013
aF0.48000000000000015
aF0.50000000000000011
aF0.52000000000000013
aF0.54000000000000015
aF0.56000000000000016
aF0.58000000000000018
aF0.6000000000000002
aF0.62000000000000022
aF0.64000000000000024
aF0.66000000000000025
aF0.68000000000000027
aF0.70000000000000029
aF0.72000000000000031
aF0.74000000000000032
aF0.76000000000000034
aF0.78000000000000036
aF0.80000000000000038
aF0.8200000000000004
aF0.84000000000000041
aF0.86000000000000043
aF0.88000000000000045
aF0.90000000000000047
aF0.92000000000000048
aF0.9400000000000005
aF0.96000000000000052
aF0.98000000000000054
aF1.0000000000000004
aF1.0200000000000005
aF1.0400000000000005
aF1.0600000000000005
aF1.0800000000000005
aF1.1000000000000005
aF1.1200000000000006
aF1.1400000000000006
aF1.1600000000000006
aF1.1800000000000006
aF1.2000000000000006
aF1.2200000000000006
aF1.2400000000000007
aF1.2600000000000007
aF1.2800000000000007
aF1.3000000000000007
aF1.3200000000000007
aF1.3400000000000007
aF1.3600000000000008
aF1.3800000000000008
aF1.4000000000000008
aF1.4200000000000008
aF1.4400000000000008
aF1.4600000000000009
aF1.4800000000000009
aF1.5000000000000009
aF1.5200000000000009
aF1.5400000000000009
aF1.5600000000000009
aF1.580000000000001
aF1.600000000000001
aF1.620000000000001
aF1.640000000000001
aF1.660000000000001
aF1.680000000000001
aF1.7000000000000011
aF1.7200000000000011
aF1.7400000000000011
aF1.7600000000000011
aF1.7800000000000011
aF1.8000000000000012
aF1.8200000000000012
aF1.8400000000000012
aF1.8600000000000012
aF1.8800000000000012
aF1.9000000000000012
aF1.9200000000000013
aF1.9400000000000013
aF1.9600000000000013
aF1.9800000000000013
aF2.0000000000000013
aF2.0200000000000014
aF2.0400000000000014
aF2.0600000000000014
aF2.0800000000000014
aF2.1000000000000014
aF2.1200000000000014
aF2.1400000000000015
aF2.1600000000000015
aF2.1800000000000015
aF2.2000000000000015
aF2.2200000000000015
aF2.2400000000000015
aF2.2600000000000016
aF2.2800000000000016
aF2.3000000000000016
aF2.3200000000000016
aF2.3400000000000016
aF2.3600000000000017
aF2.3800000000000017
aF2.4000000000000017
aF2.4200000000000017
aF2.4400000000000017
aF2.4600000000000017
aF2.4800000000000018
aF2.5000000000000018
aF2.5200000000000018
aF2.5400000000000018
aF2.5600000000000018
aF2.5800000000000018
aF2.6000000000000019
aF2.6200000000000019
aF2.6400000000000019
aF2.6600000000000019
aF2.6800000000000019
aF2.700000000000002
aF2.720000000000002
aF2.740000000000002
aF2.760000000000002
aF2.780000000000002
aF2.800000000000002
aF2.8200000000000021
aF2.8400000000000021
aF2.8600000000000021
aF2.8800000000000021
aF2.9000000000000021
aF2.9200000000000021
aF2.9400000000000022
aF2.9600000000000022
aF2.9800000000000022
aF3.0000000000000022
aF3.0200000000000022
aF3.0400000000000023
aF3.0600000000000023
aF3.0800000000000023
aF3.1000000000000023
aF3.1200000000000023
aF3.1400000000000023
aF3.1600000000000024
aF3.1800000000000024
aF3.2000000000000024
aF3.2200000000000024
aF3.2400000000000024
aF3.2600000000000025
aF3.2800000000000025
aF3.3000000000000025
aF3.3200000000000025
aF3.3400000000000025
aF3.3600000000000025
aF3.3800000000000026
aF3.4000000000000026
aF3.4200000000000026
aF3.4400000000000026
aF3.4600000000000026
aF3.4800000000000026
aF3.5000000000000027
aF3.5200000000000027
aF3.5400000000000027
aF3.5600000000000027
aF3.5800000000000027
aF3.6000000000000028
aF3.6200000000000028
aF3.6400000000000028
aF3.6600000000000028
aF3.6800000000000028
aF3.7000000000000028
aF3.7200000000000029
aF3.7400000000000029
aF3.7600000000000029
aF3.7800000000000029
aF3.8000000000000029
aF3.8200000000000029
aF3.840000000000003
aF3.860000000000003
aF3.880000000000003
aF3.900000000000003
aF3.920000000000003
aF3.9400000000000031
aF3.9600000000000031
aF3.9800000000000031
aF4.0000000000000027
aF4.0200000000000022
aF4.0400000000000018
aF4.0600000000000014
aF4.080000000000001
aF4.1000000000000005
aF4.1200000000000001
aF4.1399999999999997
aF4.1599999999999993
aF4.1799999999999988
aF4.1999999999999984
aF4.219999999999998
aF4.2399999999999975
aF4.2599999999999971
aF4.2799999999999967
aF4.2999999999999963
aF4.3199999999999958
aF4.3399999999999954
aF4.359999999999995
aF4.3799999999999946
aF4.3999999999999941
aF4.4199999999999937
aF4.4399999999999933
aF4.4599999999999929
aasS'control'
p5
(lp6
(lp7
cnumpy.core.multiarray
scalar
p8
(cnumpy
dtype
p9
(S'f8'
I0
I1
tRp10
(I3
S'<'
NNNI-1
I-1
I0
tbS'\x10\xfa7\xef\x9a\xc5\xc8?'
tRp11
ag8
(g10
S'>S\x95\xaeRu\xd0?'
tRp12
ag8
(g10
S'dl\x16\x84]\xb9\xd4?'
tRp13
ag8
(g10
S'\xb8\xdf-\x9e\xb1\xc7\xd8?'
tRp14
ag8
(g10
S'\xbd\xb1\xfd\x9b\x17\xdd\xdc?'
tRp15
ag8
(g10
S'9@\x9dk\x04r\xe0?'
tRp16
ag8
(g10
S'\xce3\x8a$Lw\xe2?'
tRp17
ag8
(g10
S"62\xc5'_\x84\xe4?"
tRp18
ag8
(g10
S'_&\xfa\x10F\x7f\xe6?'
tRp19
ag8
(g10
S'sdr\xa0\x91\x82\xe8?'
tRp20
ag8
(g10
S'\xc98h\xb8&\x7f\xea?'
tRp21
ag8
(g10
S'\x01I\xf6\xfbWp\xec?'
tRp22
ag8
(g10
S'C\xde^I\xc8c\xee?'
tRp23
aI1
aI1
aI1
aI1
aI1
aI1
aI1
aI1
aI1
aI1
aI1
aI1
aI1
aI1
aI1
aI1
aI1
aI1
aI1
aI1
aI1
aI1
aI1
aI1
aI1
aI1
aI1
aI1
aI1
aI1
aI1
aI1
aI1
aI1
aI1
aI1
aI1
aI1
aI1
aI1
aI1
aI1
aI1
aI1
aI1
aI1
aI1
aI1
aI1
aI1
aI1
aI1
aI1
aI1
aI1
aI1
aI1
aI1
aI1
aI1
aI1
aI1
aI1
ag8
(g10
S'\x05{*\xfd\xd5\xda\xed?'
tRp24
ag8
(g10
S'\x96\xaf\x06\xe3\xad\xe1\xe8?'
tRp25
ag8
(g10
S'\x85\x02\xc1Gl\xd2\xe3?'
tRp26
ag8
(g10
S'7$\x9a\xd46\xdd\xdd?'
tRp27
ag8
(g10
S'.\xbd\x12\x8b\x98\xae\xd3?'
tRp28
ag8
(g10
S'~\xc5\xf4\x89\x89\xfa\xc3?'
tRp29
ag8
(g10
S'I\x02d\xba\xc7\xeaT\xbf'
tRp30
ag8
(g10
S'\xb8%\x86~\x8aM\xb2\xbf'
tRp31
ag8
(g10
S'\x86\xda\xe3\x83\xb4-\xcc\xbf'
tRp32
ag8
(g10
S'S\xe1o\xe3\xe0\x93\xd4\xbf'
tRp33
ag8
(g10
S'\xea\xce\x99\x95\xea\xd6\xdb\xbf'
tRp34
ag8
(g10
S'\x92\x8d\xf3v\x1dK\xe0\xbf'
tRp35
ag8
(g10
S'\xf7}\xb5X5\xc7\xe2\xbf'
tRp36
ag8
(g10
S'R8\xef\xafJ\x8c\xe5\xbf'
tRp37
ag8
(g10
S'V\xbe*\xe4k7\xe7\xbf'
tRp38
ag8
(g10
S'U\x0e6\xaa\xbf\xcb\xe8\xbf'
tRp39
ag8
(g10
S'\xe6\xdf\xb2\xd6\x8d\xe7\xe9\xbf'
tRp40
ag8
(g10
S'\xd7\x17o\x04k\x05\xeb\xbf'
tRp41
ag8
(g10
S'\xb9"\tU\xe9\xb3\xeb\xbf'
tRp42
ag8
(g10
S'\x0bR;\xca\xbeg\xec\xbf'
tRp43
ag8
(g10
S'T09\x03\xcb\xca\xec\xbf'
tRp44
ag8
(g10
S'q\x82mD\xbe\xba\xec\xbf'
tRp45
ag8
(g10
S'&\xb8I\xfd\x0br\xec\xbf'
tRp46
ag8
(g10
S"\xe6\xccs\x1f'\xf0\xea\xbf"
tRp47
ag8
(g10
S'\xc2?7\xe5\xab\x87\xeb\xbf'
tRp48
ag8
(g10
S'fm^}L\x9d\xea\xbf'
tRp49
ag8
(g10
S'K\x8a\x07\xb6\xf9\xc4\xe9\xbf'
tRp50
ag8
(g10
S';\xf6\xf6\x9e\xa0\x85\xe8\xbf'
tRp51
ag8
(g10
S'\xb0\xdbE\xa8\x88M\xe7\xbf'
tRp52
ag8
(g10
S'T\xaa\xe62\x12\xb7\xe5\xbf'
tRp53
ag8
(g10
S'\xaf\x8a\x82b\xea\xe8\xe3\xbf'
tRp54
ag8
(g10
S'\xfc\\`\xfa\xf3\x16\xe2\xbf'
tRp55
ag8
(g10
S'\xc2\xd7\x9b\xfd&K\xde\xbf'
tRp56
ag8
(g10
S'\xc5m#X\xa3l\xdd\xbf'
tRp57
ag8
(g10
S'\x83\xe3\x17\x85\xa3\xfd\xd8\xbf'
tRp58
ag8
(g10
S'\xfc9\xa2\x97h\x9d\xd4\xbf'
tRp59
ag8
(g10
S'\x10DH\x9a]\x07\xcf\xbf'
tRp60
ag8
(g10
S'\xd1\xc4I\xeb2\xc6\xc4\xbf'
tRp61
ag8
(g10
S',\r4\x7f\x8f\x8d\xb6\xbf'
tRp62
ag8
(g10
S'\x9cw\xdeW`\xb6\x91\xbf'
tRp63
ag8
(g10
S'\xaa\xb1z\xabd\xd4\xb0?'
tRp64
ag8
(g10
S'Y\x1bc}\xe1\x9c\xb9?'
tRp65
ag8
(g10
S'\x91\x92mC\xf7\xc6\xc1?'
tRp66
ag8
(g10
S'\xe8\xf7\xd3\xafl\xf0\xc5?'
tRp67
ag8
(g10
S'Qb1H\x96\xc8\xc8?'
tRp68
ag8
(g10
S'\xac\x155\x0e|p\xca?'
tRp69
ag8
(g10
S'\xdd\x13\x8b\x14$\xd6\xca?'
tRp70
ag8
(g10
S'\xfe\x162\x18\xac\x86\xc9?'
tRp71
ag8
(g10
S'&\x88\x99\x03\xbdT\xc7?'
tRp72
ag8
(g10
S"#\xae'\x80\x0c\xdf\xc3?"
tRp73
ag8
(g10
S'\xfd\xe2\xbf#X\x93\xbe?'
tRp74
ag8
(g10
S',\xea\xa4\xf0\x15\xe4\xb3?'
tRp75
ag8
(g10
S'm.l(\x04D\x9f?'
tRp76
ag8
(g10
S'\\\xf0\x84\xe0\xfct\x91\xbf'
tRp77
ag8
(g10
S'T\x10\xbd&i\xde\xb4\xbf'
tRp78
ag8
(g10
S'<\x10C\xd5>\r\xc0\xbf'
tRp79
ag8
(g10
S'\xf4P\xb3\t\xc4+\xc4\xbf'
tRp80
ag8
(g10
S'\x92\x12IV\xf5\xff\xc8\xbf'
tRp81
ag8
(g10
S'Sm.\x8aF\x17\xcd\xbf'
tRp82
ag8
(g10
S'\xe8\x8d\xab\xaf\xed.\xd0\xbf'
tRp83
ag8
(g10
S'LU~\xe9\xed^\xd1\xbf'
tRp84
ag8
(g10
S'\xaa\\\xbc\x9f\xe91\xd2\xbf'
tRp85
ag8
(g10
S'\xcbz\xe1\x9e\x03\x9a\xd2\xbf'
tRp86
ag8
(g10
S'JJE\x91\xbf\xf4\xd2\xbf'
tRp87
ag8
(g10
S'\x83\xc8\x8b\xab2\x8e\xd2\xbf'
tRp88
ag8
(g10
S'\xd0\xe8\tSd\x15\xd2\xbf'
tRp89
ag8
(g10
S']?\xb7\x12|+\xd1\xbf'
tRp90
ag8
(g10
S'\xca\x01\xf3\xf7;K\xcd\xbf'
tRp91
ag8
(g10
S'\x9dN\x8a\xee\xcc2\xcd\xbf'
tRp92
ag8
(g10
S'\x0f\x9b\xb8\xaf\x9c\xe8\xc9\xbf'
tRp93
ag8
(g10
S'F\xa6\xcbr5h\xc7\xbf'
tRp94
ag8
(g10
S'\xe1\xedL\xf1\xa6\x1d\xc5\xbf'
tRp95
ag8
(g10
S'T\xbdk&\xc5\xed\xc2\xbf'
tRp96
ag8
(g10
S'7O\r(\xc7\xe6\xc0\xbf'
tRp97
ag8
(g10
S'\x8d$\xeb\x8b\xeb\xf3\xbd\xbf'
tRp98
ag8
(g10
S'\x02\xe63\x85\xff\x17\xbc\xbf'
tRp99
ag8
(g10
S'\x8av\x9d\xfb\xe1\xf9\xba\xbf'
tRp100
ag8
(g10
S'\x8bu\xcfv\x92N\xba\xbf'
tRp101
ag8
(g10
S'\tr\xee\xe2\r\xb1\xbb\xbf'
tRp102
ag8
(g10
S'\x14\x94u\x89\x9b\x01\xbb\xbf'
tRp103
ag8
(g10
S'\xcde\xde\x8b>N\xbf\xbf'
tRp104
ag8
(g10
S'\xd4\xd7\xd4\xd0\xac@\xc1\xbf'
tRp105
ag8
(g10
S'[\x1ao\xd4\xc1g\xc3\xbf'
tRp106
ag8
(g10
S'0FR\xa8\xbaA\xc5\xbf'
tRp107
ag8
(g10
S'\xc7"O\xdb\xf7\x94\xc7\xbf'
tRp108
ag8
(g10
S'^\x1d\x01\xd9\xba>\xc9\xbf'
tRp109
ag8
(g10
S'\n\xf93\xa7L0\xcb\xbf'
tRp110
ag8
(g10
S'NG\x02\xb7\x9b\x1e\xcd\xbf'
tRp111
ag8
(g10
S'\x17\xb4\xe3\x1d)\xe5\xce\xbf'
tRp112
ag8
(g10
S'T\xc4\xec\x12+!\xd0\xbf'
tRp113
ag8
(g10
S'\xd4\xd5\x1a\x8b\x1f\xf3\xd0\xbf'
tRp114
ag8
(g10
S'\x8a\x13\xbf\xdb#z\xd1\xbf'
tRp115
ag8
(g10
S'\xb5\xa2Q\xeb}\xd6\xd1\xbf'
tRp116
ag8
(g10
S'\xe5\xd0\xad$\xf3\xdf\xd1\xbf'
tRp117
ag8
(g10
S'\x10\x82\xbc\t\x04\xd5\xd1\xbf'
tRp118
ag8
(g10
S'\xee\xea4\x02Cp\xd0\xbf'
tRp119
ag8
(g10
S'\xd1\x84a\x80\xb4\xee\xd0\xbf'
tRp120
ag8
(g10
S'\x04\x89\xac\xeav\x8d\xd0\xbf'
tRp121
ag8
(g10
S'\xc2t\x17%N>\xd0\xbf'
tRp122
ag8
(g10
S'\x0f\xc0D\xf8\x06\xb7\xcd\xbf'
tRp123
ag8
(g10
S'\xbe\xdaY?\x1e\xfe\xce\xbf'
tRp124
ag8
(g10
S'\xbc\xca\r\x0e\x90Q\xce\xbf'
tRp125
ag8
(g10
S'\xd1\xf6X\x80\xa8\x9e\xcd\xbf'
tRp126
ag8
(g10
S'6e<HPW\xcd\xbf'
tRp127
ag8
(g10
S'[\xb4\x97\xec\x81\xc8\xcc\xbf'
tRp128
ag8
(g10
S'\xd9,\x0c2\x8f0\xcc\xbf'
tRp129
ag8
(g10
S'\xffe\xc3*Wl\xcc\xbf'
tRp130
ag8
(g10
S'\x90\xe5\x1e2\xe5\xb9\xcc\xbf'
tRp131
ag8
(g10
S'/\xbc\xd48\x1e2\xcc\xbf'
tRp132
ag8
(g10
S'T\xf6S\x10\x8d\xee\xcd\xbf'
tRp133
ag8
(g10
S's\x81\x94\xf9\xed\x88\xce\xbf'
tRp134
ag8
(g10
S'\xa83a\xdc\x1f\xd0\xcf\xbf'
tRp135
ag8
(g10
S'C\n({\x06n\xd0\xbf'
tRp136
ag8
(g10
S'\xa0\x0b\xf3\x9d\xe7\xe3\xd0\xbf'
tRp137
ag8
(g10
S'7D^\xaf\xc0O\xd1\xbf'
tRp138
ag8
(g10
S'\x1fs\x10\xd3\xa3\xab\xd1\xbf'
tRp139
ag8
(g10
S'\xdc\x11\xf8\x96\x8b\x85\xd1\xbf'
tRp140
ag8
(g10
S'3Gqb\x91\x94\xd1\xbf'
tRp141
ag8
(g10
S'@\xaf\xd3\xf0s\\\xd2\xbf'
tRp142
ag8
(g10
S'\x87\x01j\xb2\xc0}\xd2\xbf'
tRp143
ag8
(g10
S'P^\x82\x9c\xe3\x95\xd2\xbf'
tRp144
ag8
(g10
S'\x03\x0b_\x99;\xc3\xd2\xbf'
tRp145
ag8
(g10
S'd\xbd{\xbb8\xb9\xd2\xbf'
tRp146
ag8
(g10
S'\xdf\x08\x85\xe9\x9d\xc5\xd2\xbf'
tRp147
ag8
(g10
S'\x96DT\xf2\xd3\xc0\xd2\xbf'
tRp148
ag8
(g10
S'F\xdbV\xf4E\xcd\xd2\xbf'
tRp149
ag8
(g10
S'\x1b\xaa\xf8v\xb4\xb5\xd2\xbf'
tRp150
ag8
(g10
S'\t\xabD\xe3\xfe\xbf\xd2\xbf'
tRp151
ag8
(g10
S'\x84\x94\xe3\x8b\xc7\xaf\xd2\xbf'
tRp152
ag8
(g10
S'\xfa\x96^\xf2\x02\x9e\xd2\xbf'
tRp153
ag8
(g10
S'F\x14\xfc*\x0f\xa4\xd2\xbf'
tRp154
ag8
(g10
S'cOu\x8e\x9c\xfa\xd2\xbf'
tRp155
ag8
(g10
S'\xf7\x19\xa0\xc5W\x03\xd3\xbf'
tRp156
ag8
(g10
S'%U?\xf0{\x10\xd3\xbf'
tRp157
ag8
(g10
S'\xc1a\xa8\x9d\xef\x95\xd3\xbf'
tRp158
ag8
(g10
S'c\xe0\xa4\x10\x15\xa3\xd3\xbf'
tRp159
ag8
(g10
S'\xcc\xf6r2\x9b\xf1\xd3\xbf'
tRp160
ag8
(g10
S'\x1f\x01\x0cc\x9fE\xd4\xbf'
tRp161
ag8
(g10
S'RGM?\xc9`\xd4\xbf'
tRp162
ag8
(g10
S'%8\x1b^.e\xd8\xbf'
tRp163
ag8
(g10
S'\xcc\x8f\xf1\x14q\xd1\xd4\xbf'
tRp164
ag8
(g10
S'\x9efJ\xbc\xd97\xd8\xbf'
tRp165
ag8
(g10
S'\x9dR\x04 \xac\x86\xd3\xbf'
tRp166
ag8
(g10
S'5\x80\xbf.\n7\xd7\xbf'
tRp167
ag8
(g10
S'\x9e%\xee_3#\xd2\xbf'
tRp168
ag8
(g10
S'\x92+\xeb\xd1\xef\xfb\xd5\xbf'
tRp169
ag8
(g10
S'\xf5:W27h\xd0\xbf'
tRp170
aa(lp171
g8
(g10
S'\x1c\xba!bb{\xd1\xbf'
tRp172
ag8
(g10
S'\xbd\x82\xeb\xdd\xb44\xd4\xbf'
tRp173
ag8
(g10
S'\xbe\x02\xbb+5\xfb\xd9\xbf'
tRp174
ag8
(g10
S'\x15\xae\x06\xa7\xebS\xdb\xbf'
tRp175
ag8
(g10
S'dM\xf4\xec\xfe\xb7\xdc\xbf'
tRp176
ag8
(g10
S'Q\xc4\x9f\x13\xe8\x87\xde\xbf'
tRp177
ag8
(g10
S's\xab\x9c#\xfe*\xe0\xbf'
tRp178
ag8
(g10
S'B\x02\xcek\xb1(\xe1\xbf'
tRp179
ag8
(g10
S'\x9fJ\x14\x15\xda\x1f\xe2\xbf'
tRp180
ag8
(g10
S'k\xe7L\xbd\xaa7\xe3\xbf'
tRp181
ag8
(g10
S'\xd6\xb1\x9e\xe0mS\xe4\xbf'
tRp182
ag8
(g10
S'R\x9bl\x85\xddU\xe5\xbf'
tRp183
ag8
(g10
S'\x14\x97\xb6\x00ys\xe6\xbf'
tRp184
ag8
(g10
S'o\x0b+5\xe1\xa8\xe7\xbf'
tRp185
ag8
(g10
S'\xe3b\xb5r\xd5\xb3\xe8\xbf'
tRp186
ag8
(g10
S'\x9fL\x9c:\xed\xd6\xe9\xbf'
tRp187
ag8
(g10
S'\xb1B\x0f\x808\x16\xeb\xbf'
tRp188
ag8
(g10
S'\xc8\xaf\x9c\xa9\xa1?\xec\xbf'
tRp189
ag8
(g10
S'\x8e\xf7\x8cY\xca\x8e\xed\xbf'
tRp190
ag8
(g10
S'S\xfe\xbc\x19\xf3\xbc\xee\xbf'
tRp191
aI-1
aI-1
aI-1
aI-1
aI-1
aI-1
aI-1
aI-1
aI-1
aI-1
aI-1
aI-1
aI-1
aI-1
aI-1
aI-1
aI-1
aI-1
aI-1
aI-1
aI-1
aI-1
aI-1
aI-1
aI-1
aI-1
aI-1
aI-1
aI-1
aI-1
aI-1
aI-1
aI-1
aI-1
aI-1
aI-1
aI-1
aI-1
aI-1
aI-1
aI-1
aI-1
aI-1
aI-1
aI-1
aI-1
aI-1
aI-1
aI-1
aI-1
aI-1
aI-1
aI-1
ag8
(g10
S'\x1b\x9dR\xc4\xd3E\xed\xbf'
tRp192
ag8
(g10
S'v\xe4\x8b(\x83\x96\xe9\xbf'
tRp193
ag8
(g10
S'\xdb3\x90\x8c\xf4\xee\xe5\xbf'
tRp194
ag8
(g10
S'\xeb\x95\x13\x9d\x8a\x94\xe1\xbf'
tRp195
ag8
(g10
S'\x92\xca]}Y\xca\xda\xbf'
tRp196
ag8
(g10
S'\x90?\x81Y*\xc0\xd2\xbf'
tRp197
ag8
(g10
S'\xa7\x14\xab]\xfb\x8d\xc8\xbf'
tRp198
ag8
(g10
S'\xdd\xa1\xaa`\xad\xb1\xb8\xbf'
tRp199
ag8
(g10
S'\x02Q\x01\x9eU\x9a\x93\xbf'
tRp200
ag8
(g10
S'\xb8\x99\xac\x8d\x05\x1f\xa9?'
tRp201
ag8
(g10
S'\xa8\xc7Y\x0c\xbc\x18\xa8?'
tRp202
ag8
(g10
S'\xca\xf8VL\xd5\x04\xb7?'
tRp203
ag8
(g10
S'E\xb7l,\xeb\xb6\xb7?'
tRp204
ag8
(g10
S'w\xfc\x96\x8d\x9d\x18\xb3?'
tRp205
ag8
(g10
S'\xf13l\x01n9\xac?'
tRp206
ag8
(g10
S'\xad\x04\xbd\xf7ap\x8f?'
tRp207
ag8
(g10
S'}GFo\xf4\xdd\xaa\xbf'
tRp208
ag8
(g10
S'\x8d\xae+[U\xde\xb7\xbf'
tRp209
ag8
(g10
S'\xfe\x82\t-d\x83\xc5\xbf'
tRp210
ag8
(g10
S'\x95q\xc8\xcaCV\xd0\xbf'
tRp211
ag8
(g10
S'\xfb\x8d\xa7\x88\x95\xdd\xd5\xbf'
tRp212
ag8
(g10
S'Bo\x00\xae\xed1\xdb\xbf'
tRp213
ag8
(g10
S'\x1c\xaaG``j\xdf\xbf'
tRp214
ag8
(g10
S'3\xc5\x01\xbe\x83|\xe1\xbf'
tRp215
ag8
(g10
S'X\xb2S<\xaa\xf7\xe2\xbf'
tRp216
ag8
(g10
S'\x11\x15\xe0\x8c;\xea\xe3\xbf'
tRp217
ag8
(g10
S'8\xcdSs\x98F\xe4\xbf'
tRp218
ag8
(g10
S'\xc0\xb6\xd7Q\r\x8d\xe4\xbf'
tRp219
ag8
(g10
S'\x15\xcd\xef\x02\x82C\xe4\xbf'
tRp220
ag8
(g10
S'7H\xd9\x9f\x90\xcc\xe3\xbf'
tRp221
ag8
(g10
S'\xf9\xd7#\x84\xfc\xb8\xe2\xbf'
tRp222
ag8
(g10
S'\x11\xb3\xf8\xdf\xc9\x80\xe1\xbf'
tRp223
ag8
(g10
S'G\x06\xf5\xa35\xc3\xdf\xbf'
tRp224
ag8
(g10
S'\x8e\xad\xdb\xbfA\xd8\xdc\xbf'
tRp225
ag8
(g10
S'\n\xe3\x97\xdeS2\xd9\xbf'
tRp226
ag8
(g10
S'\x81R\x1b\x8a\xfbp\xd4\xbf'
tRp227
ag8
(g10
S'E\xed\xa0\x12\x1e%\xd3\xbf'
tRp228
ag8
(g10
S'D\x14\xeb=]0\xd0\xbf'
tRp229
ag8
(g10
S'\xce\x15\xbeo\x8a\xdc\xcc\xbf'
tRp230
ag8
(g10
S'\xd3A1\xba\xc0a\xca\xbf'
tRp231
ag8
(g10
S'\xdf\xc3\x1a\xc8k\x1f\xc9\xbf'
tRp232
ag8
(g10
S'E+\xae\x7f%\x8a\xc8\xbf'
tRp233
ag8
(g10
S'\x88\x83\xb1Yn\n\xca\xbf'
tRp234
ag8
(g10
S'(\xc0>-\x99\xa3\xcc\xbf'
tRp235
ag8
(g10
S'\xc8\xca\xb1\xcb\xd6\xcd\xce\xbf'
tRp236
ag8
(g10
S'Q\xf6\xae\xaa\xb7J\xd1\xbf'
tRp237
ag8
(g10
S"9\xaf_'hD\xd3\xbf"
tRp238
ag8
(g10
S"\xfa\xd6A'\tB\xd5\xbf"
tRp239
ag8
(g10
S'3\x80\x16\x17\xd1}\xd7\xbf'
tRp240
ag8
(g10
S'8\x10,X~\x1c\xd9\xbf'
tRp241
ag8
(g10
S'\x19\t\xa6\x13M\xf2\xda\xbf'
tRp242
ag8
(g10
S'm\xa5\x0e\xaf\xc4\t\xdc\xbf'
tRp243
ag8
(g10
S'+\x0clN]\xca\xdc\xbf'
tRp244
ag8
(g10
S'\x8d{%\xd6\xba\xfd\xdc\xbf'
tRp245
ag8
(g10
S'\xcb\x86\x04\xb3%\x88\xdc\xbf'
tRp246
ag8
(g10
S'\xe46\xd6\xce\xa5\xe6\xdb\xbf'
tRp247
ag8
(g10
S'\xeca\x1bw\xb6\xd5\xda\xbf'
tRp248
ag8
(g10
S'\xef\xfa\xabG\xd4\xfe\xd8\xbf'
tRp249
ag8
(g10
S"\xb9p\x11\xb6l'\xd7\xbf"
tRp250
ag8
(g10
S'6\xcbP\x83\xf96\xd6\xbf'
tRp251
ag8
(g10
S'<.}\xb3\xe9\x86\xd4\xbf'
tRp252
ag8
(g10
S'Y\xe2\xb4\xab:\xfa\xd2\xbf'
tRp253
ag8
(g10
S'\x1a\x063\xad\xdd\x8f\xd1\xbf'
tRp254
ag8
(g10
S'\xc3\xf8\xfb\xd5\xb5A\xd0\xbf'
tRp255
ag8
(g10
S'\xbe\xb56)\xb2\xb4\xce\xbf'
tRp256
ag8
(g10
S'\xc7\xa3\x7f\xe0\xdc\x84\xcd\xbf'
tRp257
ag8
(g10
S'\xa7\xb5\x1dl\xbe \xce\xbf'
tRp258
ag8
(g10
S'\xa3\xe5\xe7\xa0\x8b\x92\xce\xbf'
tRp259
ag8
(g10
S'\n1np\xa9\xba\xcf\xbf'
tRp260
ag8
(g10
S'/\x9eJz\x04\xf3\xd0\xbf'
tRp261
ag8
(g10
S'\x122\x15b]E\xd2\xbf'
tRp262
ag8
(g10
S'\xb1\xd6w]\xd9\x90\xd2\xbf'
tRp263
ag8
(g10
S'\xa6\x9e\x8c\xbc\x81\xa0\xd3\xbf'
tRp264
ag8
(g10
S'RJ@\xd9>X\xd4\xbf'
tRp265
ag8
(g10
S'\xaf\xc4\xd5\xb9\xa4\xe5\xd4\xbf'
tRp266
ag8
(g10
S'd\x0e0\xbd,>\xd5\xbf'
tRp267
ag8
(g10
S'\xa2I\xf3u\xecw\xd5\xbf'
tRp268
ag8
(g10
S'Gi\xb3\xb3r\x06\xd5\xbf'
tRp269
ag8
(g10
S'"~\xbe>\xaf\xdc\xd4\xbf'
tRp270
ag8
(g10
S'\xcdFY\xa1;S\xd4\xbf'
tRp271
ag8
(g10
S'\xecg\xccH\x04\xbb\xd3\xbf'
tRp272
ag8
(g10
S'#wZ\xa3\xaa\x19\xd3\xbf'
tRp273
ag8
(g10
S'\xae\xf5=\xc6\x9b\x82\xd1\xbf'
tRp274
ag8
(g10
S'[\xca\x90\x11L2\xd1\xbf'
tRp275
ag8
(g10
S'\xa9RX\xf3\xd4`\xd0\xbf'
tRp276
ag8
(g10
S'2\xb3x\xfe;\x9d\xcf\xbf'
tRp277
ag8
(g10
S':Z\x9b\x94\xaa\x93\xce\xbf'
tRp278
ag8
(g10
S'N\xee&s\xfe\xc6\xcd\xbf'
tRp279
ag8
(g10
S'I\xcb\xcb\x10:\xc6\xcc\xbf'
tRp280
ag8
(g10
S'qQ\xbe\x15\xb5v\xcc\xbf'
tRp281
ag8
(g10
S'\xd1r(\xc9\x99\xba\xcc\xbf'
tRp282
ag8
(g10
S'\xae\xd3\xc9\x91L\x1b\xcd\xbf'
tRp283
ag8
(g10
S'Z\xfc\x1cz\xc3E\xcd\xbf'
tRp284
ag8
(g10
S'\x1e>\xf2\x03\xd0\xa1\xcd\xbf'
tRp285
ag8
(g10
S'\x8f\xb5,j&\x85\xcd\xbf'
tRp286
ag8
(g10
S'8K\x93N\x7fM\xcd\xbf'
tRp287
ag8
(g10
S'\xaa\x1fDsQ^\xcd\xbf'
tRp288
ag8
(g10
S'\xbc\x8fN\x84\x8f6\xcd\xbf'
tRp289
ag8
(g10
S'\x94\xc5\x94\xda6{\xcd\xbf'
tRp290
ag8
(g10
S'\xb6R\xdc\xe2\xf7\xd0\xcc\xbf'
tRp291
ag8
(g10
S'\x95R\x95\x8b\xd6B\xcc\xbf'
tRp292
ag8
(g10
S'\xbfn\xf4\x90\xca\x89\xcb\xbf'
tRp293
ag8
(g10
S'\x0e\xf3N\xd8\xb5\x14\xcc\xbf'
tRp294
ag8
(g10
S'Dt\xb8\x89\x99\xd0\xca\xbf'
tRp295
ag8
(g10
S'\x1b\xb5\x96\xc7\x8c\xaa\xca\xbf'
tRp296
ag8
(g10
S'\x0ceS\x03\xb16\xca\xbf'
tRp297
ag8
(g10
S'Fjt\x98%2\xca\xbf'
tRp298
ag8
(g10
S'(*F\x0e<\xea\xc9\xbf'
tRp299
ag8
(g10
S'\x89\x1c\x8d\xcd\xacq\xc9\xbf'
tRp300
ag8
(g10
S'\xb3\xcf[f\x9eZ\xc9\xbf'
tRp301
ag8
(g10
S'M\xe4\x0c\x07\xfd\xd4\xc8\xbf'
tRp302
ag8
(g10
S'O(0\xd5Lv\xc8\xbf'
tRp303
ag8
(g10
S'|\x1c\xcd\x88\x9eY\xc7\xbf'
tRp304
ag8
(g10
S'k\xdefK\xd6T\xc6\xbf'
tRp305
ag8
(g10
S"\xaa'~\xffA\xa3\xc5\xbf"
tRp306
ag8
(g10
S'\x19\xa3\x9aa#\xea\xc4\xbf'
tRp307
ag8
(g10
S' \x01\x89\xcf\xad,\xc4\xbf'
tRp308
ag8
(g10
S'#\xa6^(\xa9\xd5\xc3\xbf'
tRp309
ag8
(g10
S'\x8d\xb8\xb2\x90\x01\xd4\xc3\xbf'
tRp310
ag8
(g10
S'\x7f\xc1\xbct\xd1v\xc4\xbf'
tRp311
ag8
(g10
S'\x1b\xfb\x12\x97\xf6\xbd\xc3\xbf'
tRp312
ag8
(g10
S'\x00\xdc\x05\xf3Pr\xc2\xbf'
tRp313
ag8
(g10
S'U\xee\x14\x8a,\xab\xc1\xbf'
tRp314
ag8
(g10
S'G\xdf\xb3\x05\x8f\x0f\xc1\xbf'
tRp315
ag8
(g10
S'\x90~My\xfd\x16\xc0\xbf'
tRp316
ag8
(g10
S'N%\xae\x8bm%\xbf\xbf'
tRp317
ag8
(g10
S's\x91\x1dD\xb9\x14\xbe\xbf'
tRp318
ag8
(g10
S'\xd1\xd7\x17\x1cN\n\xbd\xbf'
tRp319
ag8
(g10
S'\xd1W F\x83\x1e\xbc\xbf'
tRp320
ag8
(g10
S'\x9c<\x19.\x98\xec\xbb\xbf'
tRp321
ag8
(g10
S'\x1d\xb80C\xd61\xbb\xbf'
tRp322
ag8
(g10
S'\xe2\x8e\xef\xf08\xcc\xba\xbf'
tRp323
ag8
(g10
S'\xcco\x0b\x1e\xa5i\xb9\xbf'
tRp324
ag8
(g10
S'\xb5\xcaK&mY\xb8\xbf'
tRp325
ag8
(g10
S'\x81L\xde\xc7+\xda\xb6\xbf'
tRp326
ag8
(g10
S'p\x98i\x0f\xb8!\xb5\xbf'
tRp327
ag8
(g10
S'\x1b(\n0\x89\x10\xb3\xbf'
tRp328
ag8
(g10
S'\x15\x0f\x13r\x82\xb3\xb2\xbf'
tRp329
ag8
(g10
S'\xb5\x13\xe2\xf4\xfb\x87\xb1\xbf'
tRp330
ag8
(g10
S'\x93\xce\x1bQ\xcf=\xb0\xbf'
tRp331
ag8
(g10
S'\x0fq9\xaf.\xbb\xb0\xbf'
tRp332
ag8
(g10
S'\xf2[{B\xcc\xa3\xb4\xbf'
tRp333
ag8
(g10
S'\x10\xc2\xf4\x1f~\xae\xb7\xbf'
tRp334
ag8
(g10
S'\x8db\x16fY\x9b\xb6\xbf'
tRp335
ag8
(g10
S'\x0bh\xa0\xd0\x94\xc0\xbb\xbf'
tRp336
ag8
(g10
S'\x86\xb2U\xd8\xe8\xee\xb7\xbf'
tRp337
ag8
(g10
S"\xb6\x8e\xc6M'\xcc\xb8\xbf"
tRp338
ag8
(g10
S'\xed\xd2ay\xbd\xf1\xae\xbf'
tRp339
ag8
(g10
S'X\xe0\x99n\xb9g\xae\xbf'
tRp340
ag8
(g10
S'\xda!Y\x9b\xde{\x96\xbf'
tRp341
aa(lp342
F0.10482123820194859
aF0.10482432580433741
aF0.10512218372750597
aF0.10523209737912058
aF0.10563157986501087
aF0.10580267964267005
aF0.10622626373642557
aF0.10695918231317218
aF0.10721239899856828
aF0.10813838010958883
aF0.10915891176168559
aF0.10915891176168559
aF0.10990236646949485
aF0.11109332378659988
aF0.1115117896176354
aF0.11238241858987431
aF0.11328029502901613
aF0.11421519772968845
aF0.11518036892062521
aF0.11618132633870988
aF0.11721223599667956
aF0.11826392663353026
aF0.11936841443899178
aF0.12097273596916912
aF0.12157415264471469
aF0.12272418050481655
aF0.12388734107804389
aF0.12507991293655979
aF0.12628591711382375
aF0.12749058971054267
aF0.12872619658779857
aF0.12996820337404905
aF0.13122949311106741
aF0.13315495025681628
aF0.13379796217963752
aF0.13509180073860366
aF0.13640951620121805
aF0.13772283744803382
aF0.13905237901036382
aF0.14038800423130901
aF0.14173023742070895
aF0.14308450476928469
aF0.14513097761944244
aF0.14581387870196602
aF0.14718618896692703
aF0.14580973415751958
aF0.13774828728120089
aF0.13428475473739038
aF0.12712535381179513
aF0.12014523356183268
aF0.11328223414318485
aF0.10860525721581495
aF0.102946847170102
aF0.096807927962333076
aF0.092494946899328176
aF0.087777173673009606
aF0.083222677188648134
aF0.076928695426409358
aF0.07251913316199704
aF0.068439569846159162
aF0.065185536533975394
aF0.062322613395005
aF0.058809067518160625
aF0.052585093603077324
aF0.053089363155483828
aF0.048039223263934172
aF0.046433707472455482
aF0.040760933001612917
aF0.039480560050908477
aF0.037477650690519525
aF0.035970401382075558
aF0.0340613705307065
aF0.035834255593723656
aF0.030645123660407093
aF0.030607059182170375
aF0.031126583654195988
aF0.029812979446514405
aF0.028145722010232507
aF0.029968988671528009
aF0.031255713677551207
aF0.032927267541685457
aF0.033376288985040421
aF0.033190677060034909
aF0.032384045097147346
aF0.030861309923083481
aF0.030446483052006205
aF0.027294540355734954
aF0.026731933011293504
aF0.024630353532517118
aF0.020564143472832464
aF0.019433850052526996
aF0.016611457936693542
aF0.016575323209949828
aF0.015855629932788436
aF0.016020017712262781
aF0.016029651905565601
aF0.016384355834439732
aF0.015940715849021864
aF0.016561401951470361
aF0.017484266331777677
aF0.017536832554387718
aF0.018070964881111335
aF0.017181779085620512
aF0.016914074179716007
aF0.017097729305498691
aF0.014443316075421984
aF0.013816140598411023
aF0.010631579380272807
aF0.0067351910930132878
aF0.0058869253918499113
aF0.0021704657554044082
aF-0.0022093618212959635
aF-0.0042273846208711165
aF-0.006803345130378698
aF-0.0084396573630019824
aF-0.009664357763356158
aF-0.0087338378352121628
aF-0.009956944500101492
aF-0.009081855773333973
aF-0.0072495754560755882
aF-0.007506729146606609
aF-0.006203387991946187
aF-0.0056632339042968173
aF-0.0055996696586225895
aF-0.0053639819827451789
aF-0.0048795701453652291
aF-0.0066029438187961871
aF-0.007093397702899254
aF-0.007863962558367665
aF-0.00827033909447044
aF-0.0073384376515109664
aF-0.0083742080986186854
aF-0.0085698271635093626
aF-0.0090056820840766025
aF-0.0089409672695876762
aF-0.0090935507955897041
aF-0.0074651791522635184
aF-0.0083974056881294962
aF-0.0087487588193977117
aF-0.0091525273301673506
aF-0.0086056399182384731
aF-0.0089413105676969442
aF-0.0093996988479484265
aF-0.0084754144618255003
aF-0.0083973214240481309
aF-0.0071464081324567408
aF-0.0078229425954993402
aF-0.0086092653543318031
aF-0.009212400601018295
aF-0.0095647056043167544
aF-0.010454115063727253
aF-0.0096717938084623627
aF-0.010394089909470388
aF-0.010109657022968819
aF-0.01112704905781174
aF-0.012831078923082745
aF-0.012409573343334259
aF-0.013005704268294381
aF-0.012800238269302867
aF-0.011625059141359256
aF-0.011010243436579244
aF-0.0096704559861335183
aF-0.008534492945538626
aF-0.0078006979183160722
aF-0.0074371701877364513
aF-0.0053910255513770922
aF-0.0052329378123564668
aF-0.0060594326917570952
aF-0.0070312217339729612
aF-0.0075785835214710086
aF-0.0066457255251434382
aF-0.0077639863467190602
aF-0.0081543350223082216
aF-0.0080782284322267507
aF-0.0092847251902626621
aF-0.0088961824707877116
aF-0.0090726085706270554
aF-0.0082779108983744021
aF-0.0090763942125047098
aF-0.0093741168970241547
aF-0.010681288946494817
aF-0.0094409008628443952
aF-0.0075238607625563846
aF-0.0064369732269786567
aF-0.0067198347444073483
aF-0.006438350580604932
aF-0.006243396265689473
aF-0.0066964623849500009
aF-0.0052848689334643621
aF-0.0043650229757753508
aF-0.0032373563061544358
aF-0.0025672859904647596
aF-0.0012548324816350361
aF-0.0012558341578985557
aF-0.0019750784167374869
aF-0.003207100819606264
aF-0.0039635852511081824
aF-0.0044036284086084914
aF-0.0035204222420027365
aF-0.0028256812758242996
aF-0.002239094298376152
aF-0.00367754016386468
aF-0.0030049827574030871
aF-0.003095597333641684
aF-0.002704838000693027
aF-0.0039759858550081888
aF-0.0053449606667484778
aF-0.0060101959406583041
aF-0.0056280978629618846
aF-0.0054271758825803172
aF-0.0038397009268923104
aF-0.0043430412337348645
aF-0.0045134307484119189
aF-0.0041988347017476264
aF-0.0040941404817655116
aF-0.0047725178314764992
aF-0.0054758363089744584
aF-0.0065072421887566187
aF-0.0043049517883629257
aF-0.0038980608252448998
aF-0.0035696431285676907
aF-0.0042587162949769778
aF-0.0047622329322120193
aa(lp343
g8
(g10
S'a/\xdeD\xb4_\x0f@'
tRp344
ag8
(g10
S'\xe6n\xa8\x8f"[\x0f@'
tRp345
ag8
(g10
S'\xf9\xe3\xb1.{M\x0f@'
tRp346
ag8
(g10
S'\x1e\x07\xee\xb1\xa35\x0f@'
tRp347
ag8
(g10
S']F\xe5\x9c\x83\x17\x0f@'
tRp348
ag8
(g10
S'\t)\xb3\xf53\xf5\x0e@'
tRp349
ag8
(g10
S'2AW\xec$\xc6\x0e@'
tRp350
ag8
(g10
S'\x97jQ\xa5\xf4^\x0e@'
tRp351
ag8
(g10
S'rq\x03\xccN/\x0e@'
tRp352
ag8
(g10
S'v\xc4E_\x02\xbc\r@'
tRp353
ag8
(g10
S'\x0fw\x0e\xdd\x88\x1a\r@'
tRp354
ag8
(g10
S',\xffd\x17C\xee\x0c@'
tRp355
ag8
(g10
S'\x8b\x01\x90\x17\xb9w\x0c@'
tRp356
ag8
(g10
S'\xf5}9\x14\xf1\xe2\x0b@'
tRp357
ag8
(g10
S'_lA\xad\xa6\xec\x0b@'
tRp358
ag8
(g10
S'\xe4\x0e\xfd-\xcc\xf6\x0b@'
tRp359
ag8
(g10
S'.\xbe\xe5\x17x\xcf\n@'
tRp360
ag8
(g10
S'\xe5\x16\x83(|\xda\n@'
tRp361
ag8
(g10
S"9\x91\x19'\xa0\x88\t@"
tRp362
ag8
(g10
S'\x9a\x05\x9b\xff\x80\x94\t@'
tRp363
ag8
(g10
S'\x87\xf7\x87\x19\x08"\x08@'
tRp364
ag8
(g10
S'\xea\xef<\xce\xc3.\x08@'
tRp365
ag8
(g10
S',I\x0f\xd4\xef\xa3\x06@'
tRp366
ag8
(g10
S'\xcc\xb1\xe3U\x84\xb1\x06@'
tRp367
ag8
(g10
S'vq\x82\x87\xcb\xb3\x04@'
tRp368
ag8
(g10
S'\n\x17qg \xf2\x03@'
tRp369
ag8
(g10
S'[\x0e\x86\xda\x0e.\x03@'
tRp370
ag8
(g10
S'\\\x04\x9a\x1a\xc5g\x02@'
tRp371
ag8
(g10
S'h\x0f\xf7@n\x9f\x01@'
tRp372
ag8
(g10
S'\xe5G\xf0\xb42\xd5\x00@'
tRp373
ag8
(g10
S'\xc8\xb3\xa5\xff7\t\x00@'
tRp374
ag8
(g10
S'\xda:~/Bw\xfe?'
tRp375
ag8
(g10
S'm:c>\x1e\xd9\xfc?'
tRp376
ag8
(g10
S'\xa1:\xe9\xc9e \xfb?'
tRp377
ag8
(g10
S'\x0b\x18\xa4\xe9\xe2\x94\xf9?'
tRp378
ag8
(g10
S'#;\x94\xb39\xef\xf7?'
tRp379
ag8
(g10
S'u\x13\x1e\xf8*/\xf6?'
tRp380
ag8
(g10
S'\xe2\x1fG\x8e\xc8\x9d\xf4?'
tRp381
ag8
(g10
S'\xcc\xdb\x0c\x85Y\xf2\xf2?'
tRp382
ag8
(g10
S'\xad\x18]\xcbRE\xf1?'
tRp383
ag8
(g10
S'\xdeTvd\xb3-\xef?'
tRp384
ag8
(g10
S'\x08\xbe|\x8e!\xce\xeb?'
tRp385
ag8
(g10
S'\xe0\xaf\xa9\xf5\xce\x07\xe8?'
tRp386
ag8
(g10
S'Z\xca$]\x1f\x08\xe5?'
tRp387
ag8
(g10
S'\xfa\r\x9b\x18G\xa3\xe1?'
tRp388
ag8
(g10
S'\x18\xce;\xcc\x12\x92\xdc?'
tRp389
ag8
(g10
S'\x89{\x92\xba\x07X\xd5?'
tRp390
ag8
(g10
S'\xa1\xea \xbf\xad\x8e\xcf?'
tRp391
ag8
(g10
S'!\t ^\xed\x8d\xc3?'
tRp392
ag8
(g10
S'\xe7\xcb\xfb\x9c\xf4k\xb0?'
tRp393
ag8
(g10
S'\xc0\xa6\tf\xb5]\x94\xbf'
tRp394
ag8
(g10
S'\xf31\xc30\xf37\xb9\xbf'
tRp395
ag8
(g10
S'5\xa0\x94\xf3@\x07\xc6\xbf'
tRp396
ag8
(g10
S'\x85=\x98r\xba\xd5\xce\xbf'
tRp397
ag8
(g10
S'M1j\x00\xa4\x7f\xd3\xbf'
tRp398
ag8
(g10
S'\xfc\xd5\xa2\x19];\xd7\xbf'
tRp399
ag8
(g10
S'Go\x87\xbf\x84\x8a\xda\xbf'
tRp400
ag8
(g10
S'<\x8bB\xb2\x9ay\xdd\xbf'
tRp401
ag8
(g10
S'\xe2\x84\xe5\n0\xd5\xdf\xbf'
tRp402
ag8
(g10
S'\xcb\xb71\xc3?\x16\xe1\xbf'
tRp403
ag8
(g10
S'`\xc1\xd8\x9c\xb1\xfb\xe1\xbf'
tRp404
ag8
(g10
S'\xc4j\x9f~k\xa9\xe2\xbf'
tRp405
ag8
(g10
S'\xc5\x80\xc0.v.\xe3\xbf'
tRp406
ag8
(g10
S'\xc1\xe7\x97N\xb0w\xe3\xbf'
tRp407
ag8
(g10
S'\xf3\xb1f\xe3+\x91\xe3\xbf'
tRp408
ag8
(g10
S'\x1c\xc7`\x8b\xa0\x93\xe3\xbf'
tRp409
ag8
(g10
S'Ud\xfe\x8b\xadk\xe3\xbf'
tRp410
ag8
(g10
S'\x01oLF\x99)\xe3\xbf'
tRp411
ag8
(g10
S'\xc3\xfb\x02b1\xbc\xe2\xbf'
tRp412
ag8
(g10
S'B\xbf%\x11g/\xe2\xbf'
tRp413
ag8
(g10
S'\x82W\xa1|]\x8b\xe1\xbf'
tRp414
ag8
(g10
S'l\xe6}\xc8F\xcb\xe0\xbf'
tRp415
ag8
(g10
S'\x06l&\xa32\xfc\xdf\xbf'
tRp416
ag8
(g10
S'\xce\xc8)\xcd\xeb#\xde\xbf'
tRp417
ag8
(g10
S'\xfa\xed\n~FJ\xdc\xbf'
tRp418
ag8
(g10
S'\xe1|O\xdaUN\xda\xbf'
tRp419
ag8
(g10
S'~\xec\xcdvj"\xd8\xbf'
tRp420
ag8
(g10
S'\xc9\x90aN\xce\xf9\xd5\xbf'
tRp421
ag8
(g10
S'\xac\x97\xa4\x0b\x13\xcd\xd3\xbf'
tRp422
ag8
(g10
S',\x82\x95\xd6\xa0\x8a\xd1\xbf'
tRp423
ag8
(g10
S'\x9e\xb4\x0f\x9ei\x8a\xce\xbf'
tRp424
ag8
(g10
S'\xb4\x17x\x93\xd8\xc0\xc9\xbf'
tRp425
ag8
(g10
S'\x18Z\xfa\x03m`\xc4\xbf'
tRp426
ag8
(g10
S' \xf9\x9e9\xa0\x01\xc1\xbf'
tRp427
ag8
(g10
S'\xba\t\xacf\xb2\xc3\xb6\xbf'
tRp428
ag8
(g10
S'\xec$\xeaE\x10}\xab\xbf'
tRp429
ag8
(g10
S'H\xce\xbe\xc3\x13\x17\x90\xbf'
tRp430
ag8
(g10
S'\xbcj\x17!\x17]\x90?'
tRp431
ag8
(g10
S'\xaa\xdah\xf7\xf5\xb9\xa8?'
tRp432
ag8
(g10
S'\xa6\xdb,(+A\xb5?'
tRp433
ag8
(g10
S'Y]\xf6N\xbe\xa3\xbb?'
tRp434
ag8
(g10
S'@`\xb2h\xc8D\xc1?'
tRp435
ag8
(g10
S'\x15\x9e}@\xf6o\xc4?'
tRp436
ag8
(g10
S'\x02\xb4p\x0c7]\xc7?'
tRp437
ag8
(g10
S'<!G\xcdq\xe7\xc9?'
tRp438
ag8
(g10
S'q\xc8:\x9f\x8dL\xcc?'
tRp439
ag8
(g10
S'^`\xbabTp\xce?'
tRp440
ag8
(g10
S'o?\x9a\xd3\x8a,\xd0?'
tRp441
ag8
(g10
S'B\xf0\nN\xf9\xf3\xd0?'
tRp442
ag8
(g10
S'\x91\xfb\xfak\x81\x7f\xd1?'
tRp443
ag8
(g10
S'\xe9\x82I\x0b<0\xd2?'
tRp444
ag8
(g10
S'F\xe2\xd4\xdf\xb0\xa3\xd2?'
tRp445
ag8
(g10
S'\xd7\xefH\rC\x10\xd3?'
tRp446
ag8
(g10
S'L+j\xa2E8\xd3?'
tRp447
ag8
(g10
S'IL\xa4bRd\xd3?'
tRp448
ag8
(g10
S'\x11\x93_$\xeac\xd3?'
tRp449
ag8
(g10
S'\xc1kl\x00Lz\xd3?'
tRp450
ag8
(g10
S'\xcf_\x9a\xd3\xefH\xd3?'
tRp451
ag8
(g10
S'\x8a\x80&\xc3_\xfa\xd2?'
tRp452
ag8
(g10
S'z\x8c\xdff\xff\xf4\xd2?'
tRp453
ag8
(g10
S'\xdb\xcd\x95K\x9e\xa1\xd2?'
tRp454
ag8
(g10
S'l3\xce\x04Xo\xd2?'
tRp455
ag8
(g10
S'\xa6\x96\xc7\xe1\x9a\x13\xd2?'
tRp456
ag8
(g10
S'\x14X(\x08\x0c\x9f\xd1?'
tRp457
ag8
(g10
S'\xf8%\x060!\x11\xd1?'
tRp458
ag8
(g10
S'/<;\x93\x95\x9c\xd0?'
tRp459
ag8
(g10
S'\xe3Kn\xb1\xb9\xec\xcf?'
tRp460
ag8
(g10
S'\x93\xfc\xdb\xb4\xb9\xe1\xce?'
tRp461
ag8
(g10
S'\x1b\x80\xe0=x\xdf\xcd?'
tRp462
ag8
(g10
S'\xc6\xc3Ao\xd4\xa8\xcc?'
tRp463
ag8
(g10
S'{\xbc\x96Zp`\xcb?'
tRp464
ag8
(g10
S'\xb3J\xa5\xde\x8a\x01\xca?'
tRp465
ag8
(g10
S'\x97*\x8aeX?\xc8?'
tRp466
ag8
(g10
S'\xd6\xb6P7\x8fH\xc7?'
tRp467
ag8
(g10
S'N]\x10}O\xfc\xc5?'
tRp468
ag8
(g10
S'"\xec\xfdq[\x9d\xc4?'
tRp469
ag8
(g10
S'R\xc6\xc4w\xad3\xc3?'
tRp470
ag8
(g10
S'\x87\xc9\xc3[\xd8\x9d\xc1?'
tRp471
ag8
(g10
S'\xf3\x00\xae\xc6\x11q\xc0?'
tRp472
ag8
(g10
S'\xea6SXm\x97\xbe?'
tRp473
ag8
(g10
S'\xbc_\xd1\xe1\x07\x11\xbd?'
tRp474
ag8
(g10
S',T\x8b\xac\xabl\xba?'
tRp475
ag8
(g10
S'\xccU\xa5\x02\x18\xf7\xb8?'
tRp476
ag8
(g10
S'\xd37\xb7]\x8bn\xb7?'
tRp477
ag8
(g10
S'\x8f\x87\xa6\xf3D$\xb6?'
tRp478
ag8
(g10
S'n\x96\x997\xc1\xa9\xb4?'
tRp479
ag8
(g10
S'\xb5\xecd\x80\xaek\xb3?'
tRp480
ag8
(g10
S'\x1b&\x04\xec\xa1k\xb2?'
tRp481
ag8
(g10
S'G\xb7\xa8\xfdR/\xb1?'
tRp482
ag8
(g10
S'\x92\x96\xb8\xbf\xc3\xff\xb0?'
tRp483
ag8
(g10
S'\x1c\x8d\xd3\xfd\xca\xe5\xaf?'
tRp484
ag8
(g10
S'\xb4Y3\xea\x9f\xfe\xae?'
tRp485
ag8
(g10
S'\xa6\x96\xa1\xa4D\xec\xad?'
tRp486
ag8
(g10
S'\x90*\xce\xafP+\xab?'
tRp487
ag8
(g10
S'\xd0\xb1\xd7\xb2\x19\xaf\xaa?'
tRp488
ag8
(g10
S'*\xa7g\xf94\x1a\xa9?'
tRp489
ag8
(g10
S'>\x9ce\xec\x1a\xf9\xa7?'
tRp490
ag8
(g10
S'\x040\xd0\xfaI\xfe\xa6?'
tRp491
ag8
(g10
S'L\xf2l\xb5p^\xa6?'
tRp492
ag8
(g10
S'\xec\x1f\x1fJU8\xa6?'
tRp493
ag8
(g10
S'\x14\xc1\xc3\x99\xc9\x8a\xa4?'
tRp494
ag8
(g10
S'>%\x9b#]\x8c\xa4?'
tRp495
ag8
(g10
S'\x12\xa2;\x1f\x93S\xa4?'
tRp496
ag8
(g10
S'\xe6\xe8>\xe3\x1f\xcb\xa3?'
tRp497
ag8
(g10
S'x>\x8e\x81`<\xa4?'
tRp498
ag8
(g10
S'j\x05\xa5W\xa5.\xa2?'
tRp499
ag8
(g10
S'zi6C\x03\x96\xa3?'
tRp500
ag8
(g10
S'\xa2\xb9\xe5\xeb\xb5n\xa3?'
tRp501
ag8
(g10
S'~\x9a\xdf\xe9k\xa4\xa3?'
tRp502
ag8
(g10
S'`\xb7N\xcf\xcay\xa3?'
tRp503
ag8
(g10
S'\xe0\xe0\xb5\x96\xabb\xa4?'
tRp504
ag8
(g10
S'T\x18\x12\xe9\x02\xfa\xa3?'
tRp505
ag8
(g10
S'*\xf4\xdb/\xb5\xa1\xa4?'
tRp506
ag8
(g10
S'\xc8\xbdZ&\xd2^\xa5?'
tRp507
ag8
(g10
S'\xe8\x9b\xb5vM\x1b\xa6?'
tRp508
ag8
(g10
S'D\x1a\x08<#k\xa6?'
tRp509
ag8
(g10
S'\xaa*\xd9<\x1fP\xa7?'
tRp510
ag8
(g10
S'l\xcd\xa1\xa2\x0c\xef\xa7?'
tRp511
ag8
(g10
S':k\x81\xdb`\xf9\xa8?'
tRp512
ag8
(g10
S'\x1c\xfbGz\xca\x8c\xa9?'
tRp513
ag8
(g10
S'\x96`\x18&\x8d\x9b\xaa?'
tRp514
ag8
(g10
S'\xd8\x7f\x99P\xbf,\xaa?'
tRp515
ag8
(g10
S'B\x1d\x95\xba\xb8\x93\xaa?'
tRp516
ag8
(g10
S'2\xa3\xaa\\\xceQ\xaa?'
tRp517
ag8
(g10
S'\x04&%O\xef\x1a\xaa?'
tRp518
ag8
(g10
S'\x14\x8f\xdc(\x83*\xaa?'
tRp519
ag8
(g10
S'dk\xb1\xc7\xc9C\xab?'
tRp520
ag8
(g10
S'\x8c[\xd2\xb4\xc1@\xac?'
tRp521
ag8
(g10
S'\xd4 u\x97\xb52\xad?'
tRp522
ag8
(g10
S'R;\xc5D \x0e\xaf?'
tRp523
ag8
(g10
S'\xe9\xb5b\x86\x97\x0c\xb0?'
tRp524
ag8
(g10
S'\x9c\x95>\xa2\x892\xb0?'
tRp525
ag8
(g10
S'5$-\xae\xb4\x8e\xb0?'
tRp526
ag8
(g10
S'\x1f6\xf5~\xd0\xc8\xb0?'
tRp527
ag8
(g10
S'\xaajFUZ\xcf\xb0?'
tRp528
ag8
(g10
S'\x1cq\x06\xa2";\xb1?'
tRp529
ag8
(g10
S'\xb0\xf6\xfc\x9a7\xf3\xb0?'
tRp530
ag8
(g10
S'\x9b\xfd\x82\x10)\x19\xb1?'
tRp531
ag8
(g10
S'\xce\x12\xf7\xe2\xee2\xb1?'
tRp532
ag8
(g10
S'S\xf8\xc8\x94fK\xb1?'
tRp533
ag8
(g10
S'\xf5\xe8\xd7\x08FZ\xb1?'
tRp534
ag8
(g10
S'\xe6]\xde\xd7\xa5)\xb1?'
tRp535
ag8
(g10
S'\x07\x18\x16\x92\xb8\xf1\xb0?'
tRp536
ag8
(g10
S'=]\xe6VN\x00\xb1?'
tRp537
ag8
(g10
S'\x9c;\x89\xc1\xd46\xb1?'
tRp538
ag8
(g10
S"\xc66\x9d'-\x15\xb1?"
tRp539
ag8
(g10
S'\xd6\x01zj\x1b\xa6\xb0?'
tRp540
ag8
(g10
S'\x020F\x1d\xc0m\xb0?'
tRp541
ag8
(g10
S'\xbe\xbd{\x00k@\xb0?'
tRp542
ag8
(g10
S'z\x7f\x02\x82D\xe8\xaf?'
tRp543
ag8
(g10
S'\xf6\x13\x9b\xe47)\xaf?'
tRp544
ag8
(g10
S'\xb6\x9d\x84\xa5\xddu\xae?'
tRp545
ag8
(g10
S'\x94\x7f\x06\xc5\x08.\xad?'
tRp546
ag8
(g10
S't\x0b\xaeA\xab\xee\xab?'
tRp547
ag8
(g10
S'\x00\x0b<\x109\n\xaa?'
tRp548
ag8
(g10
S'^T\x94p\xf0J\xa8?'
tRp549
ag8
(g10
S'T&\xca\xd9)\x98\xa6?'
tRp550
ag8
(g10
S'\xb0\x1eq[\xc4>\xa5?'
tRp551
ag8
(g10
S'\xdc\xc6F>\xf8\xcc\xa3?'
tRp552
ag8
(g10
S'\xe98\x0f\x84\x13\x13\xa2?'
tRp553
ag8
(g10
S'\xe8\xd4p\xb3\x0c\x8a\xa1?'
tRp554
ag8
(g10
S'\xcc!\xa4\xd5\xf5u\x9f?'
tRp555
ag8
(g10
S'\x96oD2\xed1\x9d?'
tRp556
ag8
(g10
S'\xfa\xc4\xe7;I\xb4\x9a?'
tRp557
ag8
(g10
S'\x80s\xd1?\\b\x98?'
tRp558
ag8
(g10
S'pu\x8d&\x12|\x9e?'
tRp559
ag8
(g10
S'^$\xbd!\xb3\xb6\x94?'
tRp560
ag8
(g10
S'@\xe4\r\x7f_b\x9a?'
tRp561
ag8
(g10
S'\xd0*L\xaf8\xd7\x89?'
tRp562
ag8
(g10
S'\x94\x83\x10qT(\x92?'
tRp563
ag8
(g10
S'\x88\xcbh\xaa\xcePp?'
tRp564
ag8
(g10
S'\x94\x88\xefl=\xc2\x81?'
tRp565
ag8
(g10
S'09\xbb\x11\xdb\xa9j\xbf'
tRp566
aasS'vel'
p567
(lp568
(lp569
F-0.0016391853094100952
aF0.00115114426612854
aF0.011409464836120606
aF0.010269909858703614
aF0.0091803007125854496
aF0.0089019527435302732
aF0.0088312673568725578
aF0.0089398736953735358
aF0.0091183891296386724
aF0.009380392074584961
aF0.0097165718078613284
aF0.0097165718078613284
aF0.010019243240356445
aF0.010656217575073242
aF0.010658247947692871
aF0.011343713760375976
aF0.011688610076904297
aF0.011691072463989257
aF0.012325921058654786
aF0.012327760696411132
aF0.012925109863281249
aF0.012955535888671875
aF0.013236776351928711
aF0.01373544692993164
aF0.013763274192810059
aF0.014006786346435547
aF0.014236166954040527
aF0.014452728271484375
aF0.014657584190368653
aF0.014852308273315429
aF0.015037195205688476
aF0.015211886405944824
aF0.015379432678222657
aF0.015682604789733885
aF0.015699500083923339
aF0.015849511146545411
aF0.015992443084716798
aF0.016128730773925782
aF0.016258821487426758
aF0.016387660980224608
aF0.016517145156860352
aF0.016645202636718748
aF0.01688363265991211
aF0.016897024154663084
aF0.017122964859008789
aF0.01715846061706543
aF0.013861366271972656
aF0.012691414833068848
aF0.005527313232421875
aF0.0028664133548736573
aF-0.0034911801815032959
aF-0.010983218193054199
aF-0.019404447555541993
aF-0.028654661178588867
aF-0.038723251342773435
aF-0.049345451354980467
aF-0.060691184997558593
aF-0.073186080932617192
aF-0.084651641845703118
aF-0.097102180480957034
aF-0.11031604766845703
aF-0.12395101928710937
aF-0.13958361816406251
aF-0.15285636901855468
aF-0.16711563110351563
aF-0.18376533508300782
aF-0.1991083984375
aF-0.21602459716796876
aF-0.23257749938964845
aF-0.25119154357910156
aF-0.27793096923828126
aF-0.28809353637695312
aF-0.31326504516601561
aF-0.32660671997070312
aF-0.34559823608398438
aF-0.36399511718749999
aF-0.38447149658203122
aF-0.40407446289062499
aF-0.42237615966796876
aF-0.43631411743164061
aF-0.45322415161132812
aF-0.45998672485351561
aF-0.46340008544921873
aF-0.46584832763671874
aF-0.46522744750976563
aF-0.46365689086914064
aF-0.45576907348632811
aF-0.451402099609375
aF-0.44215420532226563
aF-0.42524169921874999
aF-0.41070825195312499
aF-0.40573178100585938
aF-0.39055892944335935
aF-0.36774737548828124
aF-0.35405615234374999
aF-0.34946484374999998
aF-0.34024777221679686
aF-0.32997656250000001
aF-0.32803018188476563
aF-0.32509982299804685
aF-0.32517443847656252
aF-0.32677252197265627
aF-0.32960980224609376
aF-0.33783151245117188
aF-0.34045172119140626
aF-0.34773486328124997
aF-0.35823004150390625
aF-0.36565878295898435
aF-0.3731243591308594
aF-0.37599813842773439
aF-0.38294818115234375
aF-0.38540975952148437
aF-0.38604983520507813
aF-0.38581524658203126
aF-0.38421051025390623
aF-0.38101184082031248
aF-0.37497753906249998
aF-0.36876861572265623
aF-0.36176123046874997
aF-0.35890740966796875
aF-0.3483498229980469
aF-0.34581597900390626
aF-0.33979919433593753
aF-0.33511294555664062
aF-0.33147985839843752
aF-0.32873684692382815
aF-0.32738693237304689
aF-0.32787255859374997
aF-0.32831207275390623
aF-0.32996453857421876
aF-0.33391812133789062
aF-0.33641094970703123
aF-0.33780947875976564
aF-0.34053863525390626
aF-0.34324407958984376
aF-0.345041259765625
aF-0.34600390624999999
aF-0.34616561889648439
aF-0.34486386108398437
aF-0.3421558532714844
aF-0.33906729125976565
aF-0.33691998291015623
aF-0.33263470458984373
aF-0.32647195434570314
aF-0.32190628051757814
aF-0.31974362182617189
aF-0.31611242675781248
aF-0.31291806030273439
aF-0.31024655151367186
aF-0.30750442504882813
aF-0.30615570068359377
aF-0.30565686035156248
aF-0.30506838989257812
aF-0.30455856323242186
aF-0.30446801757812503
aF-0.30432308959960935
aF-0.3040780944824219
aF-0.30367462158203123
aF-0.30328527832031249
aF-0.30214102172851565
aF-0.30103515624999999
aF-0.29934381103515623
aF-0.29713385009765625
aF-0.29417236328125002
aF-0.29105734252929688
aF-0.28665930175781251
aF-0.28366070556640627
aF-0.2825566711425781
aF-0.27854901123046877
aF-0.27603802490234375
aF-0.2747722473144531
aF-0.27093173217773436
aF-0.26969528198242188
aF-0.26756048583984376
aF-0.2640534973144531
aF-0.261636474609375
aF-0.25861291503906247
aF-0.25786816406250002
aF-0.25318544006347654
aF-0.25243777465820311
aF-0.24973704528808593
aF-0.24579948425292969
aF-0.24422714233398438
aF-0.2417227783203125
aF-0.23834890747070311
aF-0.23714556884765625
aF-0.23483392333984374
aF-0.23268504333496093
aF-0.23021965026855468
aF-0.22773571777343751
aF-0.22471185302734376
aF-0.22123983764648439
aF-0.21662939453124999
aF-0.21373451232910157
aF-0.21238969421386719
aF-0.20978250122070313
aF-0.20692474365234376
aF-0.20449008178710937
aF-0.20144584655761719
aF-0.19627740478515626
aF-0.1952948760986328
aF-0.19210041809082032
aF-0.18665870666503906
aF-0.18303451538085938
aF-0.18147909545898439
aF-0.17689250183105468
aF-0.17405010986328126
aF-0.17232566833496094
aF-0.16947186279296875
aF-0.16658932495117187
aF-0.16137640380859375
aF-0.1580305938720703
aF-0.15444046020507812
aF-0.15232550048828125
aF-0.14595579528808594
aF-0.14143777465820312
aF-0.1353031768798828
aF-0.13337626647949219
aF-0.12829562377929687
aF-0.12706056976318358
aF-0.12509552001953125
aF-0.1243620376586914
aF-0.122262939453125
aa(lp570
F5.5002130102366208e-07
aF1.8702825531363488e-05
aF-0.00071662062406539914
aF-0.00071624314785003666
aF-0.00089406603574752809
aF-0.0010661953687667847
aF-0.0012830971479415893
aF-0.0014950803518295288
aF-0.0016565417051315307
aF-0.0018015232086181642
aF-0.0019307398796081542
aF-0.0019307398796081542
aF-0.0020166580677032473
aF-0.0021293489933013918
aF-0.0021261119842529296
aF-0.0021662726402282713
aF-0.0021523764133453368
aF-0.0021486017704010008
aF-0.0020810039043426512
aF-0.0020768690109252931
aF-0.001965330123901367
aF-0.0019550644159317017
aF-0.0018825174570083617
aF-0.0017227987051010132
aF-0.0017090178728103639
aF-0.0016086905002593995
aF-0.0015006605386734008
aF-0.0013875154256820679
aF-0.0012710932493209838
aF-0.0011544514894485474
aF-0.0010395923852920532
aF-0.0009261744618415833
aF-0.00081371414661407472
aF-0.00060096961259841917
aF-0.00058427566289901735
aF-0.00046826303005218504
aF-0.00035273286700248719
aF-0.00023829749226570129
aF-0.00012775574624538421
aF-2.2507918998599052e-05
aF7.6742373406887054e-05
aF0.0001709558218717575
aF0.00033261945843696594
aF0.0003463393449783325
aF0.00049562385678291322
aF0.00012548550963401795
aF0.0031949100494384768
aF0.0042701687812805172
aF0.011349692344665527
aF0.013698461532592774
aF0.019967599868774413
aF0.027179256439208984
aF0.035371589660644534
aF0.044483299255371096
aF0.054576976776123047
aF0.065006477355957035
aF0.076605209350585943
aF0.089459945678710934
aF0.1010714111328125
aF0.11381630706787109
aF0.12735121917724609
aF0.14112623596191406
aF0.15717997741699219
aF0.17119360351562499
aF0.18534202575683595
aF0.20271961975097658
aF0.21819642639160156
aF0.23619790649414063
aF0.25311138916015624
aF0.27222869873046873
aF0.29915048217773438
aF0.31033786010742187
aF0.33629223632812499
aF0.35007476806640625
aF0.36927279663085938
aF0.38763143920898435
aF0.40895147705078128
aF0.43007846069335937
aF0.45061196899414063
aF0.46867324829101564
aF0.49337741088867187
aF0.50570843505859375
aF0.51269445800781255
aF0.52027624511718751
aF0.52705187988281255
aF0.52808734130859381
aF0.52809564208984372
aF0.52639923095703123
aF0.52160241699218746
aF0.51141720581054684
aF0.50115942382812495
aF0.49750289916992185
aF0.48453903198242188
aF0.46228958129882813
aF0.44528378295898435
aF0.43790008544921877
aF0.42063159179687498
aF0.39075866699218748
aF0.37981451416015627
aF0.34782974243164061
aF0.33798406982421875
aF0.31489453125
aF0.29394989013671874
aF0.25675320434570315
aF0.24689721679687501
aF0.22193763732910157
aF0.18880047607421874
aF0.16553695678710936
aF0.14056312561035156
aF0.12956289672851562
aF0.095859336853027347
aF0.072998291015624994
aF0.05715808868408203
aF0.033152397155761716
aF0.011484807968139648
aF-0.0085049743652343742
aF-0.030675745010375975
aF-0.045196861267089841
aF-0.05637911605834961
aF-0.059941085815429687
aF-0.068727920532226566
aF-0.069922447204589844
aF-0.071161506652832038
aF-0.070099967956542969
aF-0.067334632873535152
aF-0.062589477539062494
aF-0.056203571319580078
aF-0.043443199157714843
aF-0.040900077819824215
aF-0.033334732055664062
aF-0.022225553512573243
aF-0.016522487640380858
aF-0.014277906417846679
aF-0.010980646133422851
aF-0.0093887739181518562
aF-0.0095194120407104486
aF-0.011453655242919922
aF-0.016178409576416017
aF-0.021086277008056639
aF-0.028217107772827148
aF-0.03561436462402344
aF-0.040331115722656248
aF-0.049659503936767581
aF-0.064389144897460934
aF-0.075485702514648437
aF-0.08077838897705078
aF-0.089952278137207034
aF-0.098454177856445307
aF-0.10652620697021484
aF-0.11763335418701172
aF-0.12368181610107422
aF-0.12648236846923827
aF-0.13088856506347657
aF-0.13484466552734375
aF-0.13721409606933593
aF-0.13951387023925782
aF-0.13997122192382813
aF-0.14049389648437499
aF-0.14058094787597655
aF-0.14097877502441405
aF-0.14097727966308593
aF-0.14166197204589845
aF-0.14229171752929687
aF-0.14306208801269532
aF-0.144222412109375
aF-0.14667160034179688
aF-0.14927458190917969
aF-0.15042755126953125
aF-0.15603080749511719
aF-0.16044529724121093
aF-0.16272784423828124
aF-0.17150663757324219
aF-0.17460897827148439
aF-0.18004170227050781
aF-0.18858544921875001
aF-0.19358680725097657
aF-0.19857371520996095
aF-0.19995175170898438
aF-0.20733016967773438
aF-0.20845033264160157
aF-0.21269017028808593
aF-0.2177641143798828
aF-0.21956796264648437
aF-0.22204666137695311
aF-0.22498915100097655
aF-0.22586419677734376
aF-0.22723831176757814
aF-0.22849530029296874
aF-0.22966705322265624
aF-0.23110252380371094
aF-0.23270489501953126
aF-0.23455195617675781
aF-0.23773937988281249
aF-0.24008592224121095
aF-0.24142477416992186
aF-0.24399356079101561
aF-0.24664331054687499
aF-0.24892680358886718
aF-0.25196429443359375
aF-0.25646929931640627
aF-0.25742416381835936
aF-0.2599217529296875
aF-0.26422158813476565
aF-0.26677755737304687
aF-0.26798507690429685
aF-0.27085305786132813
aF-0.27293304443359373
aF-0.27395446777343752
aF-0.27607733154296876
aF-0.27740545654296878
aF-0.27976196289062499
aF-0.2807558288574219
aF-0.28201922607421875
aF-0.28282263183593748
aF-0.28521112060546877
aF-0.28713385009765624
aF-0.29122052001953125
aF-0.29299450683593747
aF-0.29886376953124999
aF-0.30114221191406249
aF-0.30550900268554687
aF-0.30721063232421875
aF-0.31102801513671874
aa(lp571
g8
(g10
S'\xcf\xa7\x86\x88\xc7\xc2\x94\xbf'
tRp572
ag8
(g10
S'Sy;\xca\xcf:\x9b\xbf'
tRp573
ag8
(g10
S'\xef\xd6\x15\x8e\x0e\xff\xa6\xbf'
tRp574
ag8
(g10
S'\x7fg\x8e\x00\x89\xbc\xb2\xbf'
tRp575
ag8
(g10
S'\xd1b\x1f.\xbe\xc4\xbb\xbf'
tRp576
ag8
(g10
S'\x0c\x81o\x81$\xce\xc2\xbf'
tRp577
ag8
(g10
S'\x83\tH\xbb\xdf\x99\xc7\xbf'
tRp578
ag8
(g10
S'\xa1]\x97\x12\xd9\xc4\xcb\xbf'
tRp579
ag8
(g10
S"Zm'\xf1\xaa\xd9\xce\xbf"
tRp580
ag8
(g10
S'T0\xb1\xff>D\xd0\xbf'
tRp581
ag8
(g10
S'\xd2\xaaL6\x81R\xd0\xbf'
tRp582
ag8
(g10
S"E\xb5\xcc\xa0\r'\xcf\xbf"
tRp583
ag8
(g10
S',R\xcc\xf15E\xcc\xbf'
tRp584
ag8
(g10
S'\x80+\xa21\x8bO\xc8\xbf'
tRp585
ag8
(g10
S'\xfd\xe2\xe8\x84\xce\xb0\xc3\xbf'
tRp586
ag8
(g10
S'V{\xce\x9fY\xee\xbd\xbf'
tRp587
ag8
(g10
S'_`\x91I\rD\xb5\xbf'
tRp588
ag8
(g10
S'\xe4\xb3\xa7\xdb\xf0\xb7\xac\xbf'
tRp589
ag8
(g10
S'B\xa8\x03\xca\x87\x10\xa4\xbf'
tRp590
ag8
(g10
S'\x12\xa1\x00h1w\xa1\xbf'
tRp591
ag8
(g10
S',Y\xf9\xc8\xd4\xf3\x8e\xbf'
tRp592
ag8
(g10
S'\xcf\xcch\xc2J\x98\x90\xbf'
tRp593
ag8
(g10
S'~\xf4\xbfh1\xa3\x91\xbf'
tRp594
ag8
(g10
S'J\xd4"Z\xb9\xac\x92\xbf'
tRp595
ag8
(g10
S'\xfd\xc1\x05+\xa9^\x93\xbf'
tRp596
ag8
(g10
S'\x86\xf8tzm\x1b\x94\xbf'
tRp597
ag8
(g10
S'\x1cT\xc5\x03\xea\xd1\x94\xbf'
tRp598
ag8
(g10
S'\x98,\x97Luu\x95\xbf'
tRp599
ag8
(g10
S'\xa5\xd4\x94k\xca,\x96\xbf'
tRp600
ag8
(g10
S'n\x9c^\xb3\xfd\xe0\x96\xbf'
tRp601
ag8
(g10
S'\x9e\xe1\xb5\x82\xbd\x8d\x97\xbf'
tRp602
ag8
(g10
S'Z\x06F\xf4\xcb~\x98\xbf'
tRp603
ag8
(g10
S'{\xc52]xc\x99\xbf'
tRp604
ag8
(g10
S'\xf5\rX\x1a\x84^\x9a\xbf'
tRp605
ag8
(g10
S'\xfa\xfc\xb0\x14\xd7L\x9b\xbf'
tRp606
ag8
(g10
S'\x01\x8ff\xa8\xd60\x9c\xbf'
tRp607
ag8
(g10
S']\x90!\xa76\r\x9d\xbf'
tRp608
ag8
(g10
S'\xf7%\x1a!\x18\xe3\x9d\xbf'
tRp609
ag8
(g10
S'\x97E%\x17`\x82\x9e\xbf'
tRp610
ag8
(g10
S'FCE\xe9+\x1f\x9f\xbf'
tRp611
ag8
(g10
S'\x98\x82\xad=q\x8c\x9f\xbf'
tRp612
ag8
(g10
S'\xc5\xb6H\x86\xe8\x01\xa0\xbf'
tRp613
ag8
(g10
S'\xe6\x05\xb7\xbdU>\xa0\xbf'
tRp614
ag8
(g10
S'*\x17\x15d\xd1I\xa0\xbf'
tRp615
ag8
(g10
S'\xf0\x18;W\xdc~\xa0\xbf'
tRp616
ag8
(g10
S'\xc1pl\xb8[L\xa0\xbf'
tRp617
ag8
(g10
S'\xeb\xe1\xbb\x89\x90\xc7\x9e\xbf'
tRp618
ag8
(g10
S'eqI\xa7Z\xdd\x9c\xbf'
tRp619
ag8
(g10
S'\x19vW(\xf6u\x98\xbf'
tRp620
ag8
(g10
S'w\x16\xa6\xe43\x98\x92\xbf'
tRp621
ag8
(g10
S'\xa3e\xb9\x07/\xf5\x82\xbf'
tRp622
ag8
(g10
S':\x99\xe9}\xd4\xa0Z?'
tRp623
ag8
(g10
S'\xb9r\xe8\xe7p\x80\x8e?'
tRp624
ag8
(g10
S'\x92\x8fn\xa5\xee\xd1\x9e?'
tRp625
ag8
(g10
S'\xdb\xad!Nps\xa7?'
tRp626
ag8
(g10
S'F\xb5\xe2=~\xb9\xaf?'
tRp627
ag8
(g10
S'\x98\xa9E-\xe4\xd1\xb3?'
tRp628
ag8
(g10
S'\xb7g\t43z\xb7?'
tRp629
ag8
(g10
S'Gv?\xe8C\x82\xba?'
tRp630
ag8
(g10
S'\xa6\x9d\x9dm>\xe6\xbc?'
tRp631
ag8
(g10
S'\xb7\xec\xdf\xb0\x15\x91\xbe?'
tRp632
ag8
(g10
S'\xfe\xe5T\xe0\x08\x88\xbf?'
tRp633
ag8
(g10
S'2\x86\xc8}\x8a\xf1\xbf?'
tRp634
ag8
(g10
S'\xaf#S\x1e\xd2\xed\xbf?'
tRp635
ag8
(g10
S',)j\x9b\xb7W\xbf?'
tRp636
ag8
(g10
S'd\xab\x87\xa5\xf9\xbb\xbe?'
tRp637
ag8
(g10
S'\x8e\xcc\x83\x7f\xf6\x86\xbd?'
tRp638
ag8
(g10
S'L?z2\x9e\xa3\xbc?'
tRp639
ag8
(g10
S'\x1d\xa9y\x12\nL\xbb?'
tRp640
ag8
(g10
S'\xb6pa\xc2\xfc2\xba?'
tRp641
ag8
(g10
S'\x1b>\xed\xde\x02\xe9\xb8?'
tRp642
ag8
(g10
S'Y_>2\xf9\xd1\xb7?'
tRp643
ag8
(g10
S'1\x0e\x15t\xba\xac\xb6?'
tRp644
ag8
(g10
S'\x92(\xb7\x19`x\xb5?'
tRp645
ag8
(g10
S'Ve\xdf\xfctY\xb4?'
tRp646
ag8
(g10
S'\r"JA 1\xb3?'
tRp647
ag8
(g10
S'qW\x90\xefH\x17\xb2?'
tRp648
ag8
(g10
S'\x8cp\xf4\x87q\xd3\xb0?'
tRp649
ag8
(g10
S'\x1b7\xce\x8f\x18\xc2\xae?'
tRp650
ag8
(g10
S'\x1e\xf6\xc14\xc0\xb9\xab?'
tRp651
ag8
(g10
S's\xb3\xaf\n\xf4u\xa8?'
tRp652
ag8
(g10
S'B\xed\xff\x05S1\xa5?'
tRp653
ag8
(g10
S'\xceZ\xd9\x07d\xa3\xa1?'
tRp654
ag8
(g10
S'T\xe0\x87\x81z\x9c\x9b?'
tRp655
ag8
(g10
S'F}0\xb55\x9d\x95?'
tRp656
ag8
(g10
S'j\xfc\xc4\x82\x90-\x8e?'
tRp657
ag8
(g10
S'\x96\x87\x13\xf0~\xa9\x85?'
tRp658
ag8
(g10
S' Sv\x0c\x0cxz?'
tRp659
ag8
(g10
S'\x1b\x93}\x7f\xe8Ys?'
tRp660
ag8
(g10
S'<\xf12\x84u\x86t?'
tRp661
ag8
(g10
S'\x9a\xeeP`\xc8wz?'
tRp662
ag8
(g10
S'\xea\x94\xc4\x98\xaf\xa1\x82?'
tRp663
ag8
(g10
S'\xb6CBA`\xd4\x89?'
tRp664
ag8
(g10
S'\xd3\xb0\x11\x86\xc0{\x91?'
tRp665
ag8
(g10
S'\x9b\xd5\xbe\xcf\xf0\xc9\x95?'
tRp666
ag8
(g10
S'%\xedD\xd5\xc1\xb0\x99?'
tRp667
ag8
(g10
S'\xed\x15\x9f\xac\x88J\x9c?'
tRp668
ag8
(g10
S'>\xc1c\xc7\x9b~\x9d?'
tRp669
ag8
(g10
S'\x0bv\xad\xc1^-\x9d?'
tRp670
ag8
(g10
S'\xf6\x15\xe0\x12oZ\x9b?'
tRp671
ag8
(g10
S'\xc9b[S1\x8a\x98?'
tRp672
ag8
(g10
S'\xaf\x08\xe2\xde\xecQ\x94?'
tRp673
ag8
(g10
S'k\x02\tp\xf6\xff\x8f?'
tRp674
ag8
(g10
S'&\xdb\x98P\xa2\xaa\x86?'
tRp675
ag8
(g10
S'\xb56\x89o\x8a\xe2{?'
tRp676
ag8
(g10
S'y\x823\xc3\x87\xaco?'
tRp677
ag8
(g10
S'\xa8?\xd8_\x0c:R?'
tRp678
ag8
(g10
S'\xf4\xb0\xd5Kaj6?'
tRp679
ag8
(g10
S'\xf5\n\x9e>\xea\xc4R?'
tRp680
ag8
(g10
S'g2\x9f\xff84c?'
tRp681
ag8
(g10
S'\xf5>A\xe4\xb5gw?'
tRp682
ag8
(g10
S'\x14\x80\xf0\xcd\x83\x95\x83?'
tRp683
ag8
(g10
S'\xc8\xd4t\xae\x16\x1e\x8d?'
tRp684
ag8
(g10
S'\x96\xd0\xe8r\x12\xba\x93?'
tRp685
ag8
(g10
S'B\xe5\xf88\x1e\x17\x99?'
tRp686
ag8
(g10
S'G\xc3\xbc\x11\x9c=\x9e?'
tRp687
ag8
(g10
S'\x8e\x80Y:\xa65\xa1?'
tRp688
ag8
(g10
S'\x7f\xcf\x14\xd2\xc1\xe5\xa2?'
tRp689
ag8
(g10
S'g\x85q+\xce\xfd\xa3?'
tRp690
ag8
(g10
S'\xba(zT\x84f\xa4?'
tRp691
ag8
(g10
S'/\x80\x0c\x94\xb8\x06\xa4?'
tRp692
ag8
(g10
S'\xa4\xd0LH\x8d\xf8\xa2?'
tRp693
ag8
(g10
S";a\x12\xa5N'\xa1?"
tRp694
ag8
(g10
S'\xf4X&\xe5\xb6\xd7\x9d?'
tRp695
ag8
(g10
S'\x90\rW\xa2#\xa0\x98?'
tRp696
ag8
(g10
S'\xcf%\x8d\xa7\t\x9e\x92?'
tRp697
ag8
(g10
S'\xcb\xba\x06\x9f\x9e\xe9\x8a?'
tRp698
ag8
(g10
S'\r\x07\xa5\xe2\x92\xd7\x80?'
tRp699
ag8
(g10
S'\x812\xdc\xec\x10wp?'
tRp700
ag8
(g10
S'\x9f\r\xfd\xf5e\xb1U?'
tRp701
ag8
(g10
S'\xd0\xc7\x9eU\x9e\xf7M\xbf'
tRp702
ag8
(g10
S"\xb9Y\xdc'Z\x13V\xbf"
tRp703
ag8
(g10
S'\xf5\xcdo+\xec\xc8L\xbf'
tRp704
ag8
(g10
S'\xf0\x05m\n\x87\xa1\x08?'
tRp705
ag8
(g10
S'\x8e\x03\x15l\x96\xfeV?'
tRp706
ag8
(g10
S'\xbe\xba\xcf+_\xb7g?'
tRp707
ag8
(g10
S'\xdc\x03u\x8c\xa4\x83q?'
tRp708
ag8
(g10
S'\x0cY\xa4}\xeb\x87u?'
tRp709
ag8
(g10
S'5\xdc\x1b\xad\\Sx?'
tRp710
ag8
(g10
S'\xfd\xceb\xe5\x89\x1bx?'
tRp711
ag8
(g10
S'\xa5RU&\xc1#v?'
tRp712
ag8
(g10
S'|[\xce\xbf\xec#s?'
tRp713
ag8
(g10
S'>\xc3\xe5\x08\xb3\x11o?'
tRp714
ag8
(g10
S'\x1f\xca\xf7\x9dq\xf0d?'
tRp715
ag8
(g10
S'A>On\xda\xa2Z?'
tRp716
ag8
(g10
S'\xb1\xa8\xaa\xc3\x89\xd6I?'
tRp717
ag8
(g10
S'\x80\x90\x84\xcb\x1b\xdf\xff\xbe'
tRp718
ag8
(g10
S'\x8b\x8ee\x98i\xbfB\xbf'
tRp719
ag8
(g10
S'c@\x12I\x0fCP\xbf'
tRp720
ag8
(g10
S'\x01CP\xf3~\xcbQ\xbf'
tRp721
ag8
(g10
S'-V\xd2\xa3-TH\xbf'
tRp722
ag8
(g10
S'\xf3%4\x87\xfeB8\xbf'
tRp723
ag8
(g10
S'x\x0c*\x13\xbd\xeeB?'
tRp724
ag8
(g10
S'(\xb8\x8b<\x02\xa0X?'
tRp725
ag8
(g10
S'\xc3\xd2oQ\xfe\x9fg?'
tRp726
ag8
(g10
S'm\xf8\x90\x97\x19\xebq?'
tRp727
ag8
(g10
S'vt\xa9](Vx?'
tRp728
ag8
(g10
S'\x00\xfa{\r\x1e\x1e~?'
tRp729
ag8
(g10
S'\xe6"\n\x04x\x94\x81?'
tRp730
ag8
(g10
S'\xc7\xcb\xd8\xbcI\x9f\x83?'
tRp731
ag8
(g10
S'\xbe\x80>G\xea\xf1\x84?'
tRp732
ag8
(g10
S'<\xe6\x151\x99\xae\x84?'
tRp733
ag8
(g10
S'X\xd2\xb2\xa1W\xd5\x82?'
tRp734
ag8
(g10
S'\x7f\xe2\xeaIU\x08\x80?'
tRp735
ag8
(g10
S'X\xb9QHg-w?'
tRp736
ag8
(g10
S'\xeaQ:!e"g?'
tRp737
ag8
(g10
S'\xdc\xbcM\xa2T28\xbf'
tRp738
ag8
(g10
S'\xe6\xcc\xea\xf8\xbc\xf5m\xbf'
tRp739
ag8
(g10
S'\xc3k1\x9bg\xee{\xbf'
tRp740
ag8
(g10
S'P\x07\x96\xe1\xbcz\x84\xbf'
tRp741
ag8
(g10
S'D\xff2\xfc\xf9\x83\x89\xbf'
tRp742
ag8
(g10
S'\xe4t\xc0\xd9\x02C\x8c\xbf'
tRp743
ag8
(g10
S'T\xe6\x01\xc3"\xa1\x8d\xbf'
tRp744
ag8
(g10
S'?\xbb\xbf\xb5\xd1\x9c\x8c\xbf'
tRp745
ag8
(g10
S'\x16\xa2\x02\xa6\xf2\x95\x89\xbf'
tRp746
ag8
(g10
S'\xdc\x17\xd7\x89c\xd8\x85\xbf'
tRp747
ag8
(g10
S'z\xc9\x1fYT(\x80\xbf'
tRp748
ag8
(g10
S'\xaeA\xb3\xe7\xe7\x1fu\xbf'
tRp749
ag8
(g10
S'\xe9\xb8mi\x99\xb5a\xbf'
tRp750
ag8
(g10
S'1\x17l\xc7\x96\x19@?'
tRp751
ag8
(g10
S'\xa2\\\xcc\xdf\xb7$h?'
tRp752
ag8
(g10
S'P=\x92\xb2\xe8\ns?'
tRp753
ag8
(g10
S'\xc6\t\xbf\xed\x14dx?'
tRp754
ag8
(g10
S'>\xe9\xc6*\x1c\xddz?'
tRp755
ag8
(g10
S'\xe6D\r\xfd\xa9>{?'
tRp756
ag8
(g10
S'\xb2T\xcc\xe0\xec\tz?'
tRp757
ag8
(g10
S'\xfb\xf8\xf8S\x086v?'
tRp758
ag8
(g10
S'\xf7\x1e\xce\xa5\xee\xecp?'
tRp759
ag8
(g10
S'\x98\xca\x07\xcc\xd7\xb6a?'
tRp760
ag8
(g10
S'\x95\xc4\r\x9aA\xe38?'
tRp761
ag8
(g10
S'\xd2\xd6\xfd\xae\x9b\x98W\xbf'
tRp762
ag8
(g10
S'\xd6\xb1bL\xbc\xe8l\xbf'
tRp763
ag8
(g10
S'K\xb76\xda\xaa\x18w\xbf'
tRp764
ag8
(g10
S'\x08\xdcj\x80:B~\xbf'
tRp765
ag8
(g10
S'\xac\x89\xa0\xfe3\xcf\x82\xbf'
tRp766
ag8
(g10
S'\x94\xda{\x8e\xf4P\x85\xbf'
tRp767
ag8
(g10
S'\x02\xbe\x1e6\xf9\x1a\x87\xbf'
tRp768
ag8
(g10
S'7\xacK\x06iy\x87\xbf'
tRp769
ag8
(g10
S'\xaf[\xfb\xaf\x00\x02\x87\xbf'
tRp770
ag8
(g10
S'\xb7\x14\xbd\r\xfc\xef\x84\xbf'
tRp771
ag8
(g10
S'\x04={\x8b&6\x82\xbf'
tRp772
ag8
(g10
S't\xfc\x89\xf6\xcc {\xbf'
tRp773
ag8
(g10
S'\xe1\x9c\x9fZ\xedkr\xbf'
tRp774
ag8
(g10
S'`\xc4)\xa8\x84`a\xbf'
tRp775
ag8
(g10
S'\xf6\xdd\x1aP}\x1e\xf7>'
tRp776
ag8
(g10
S'\xa4\x87YWr\xaab?'
tRp777
ag8
(g10
S'\xe3n\x90T\x8a]q?'
tRp778
ag8
(g10
S'\xff\xd9y=\xc0zu?'
tRp779
ag8
(g10
S'\x94\x93T\xa1\xb0\x96y?'
tRp780
ag8
(g10
S'9r\xcbU \xf1{?'
tRp781
ag8
(g10
S'\x86\xec\xfe\xee\x0b\x05|?'
tRp782
ag8
(g10
S'\xa9k\xe0\xcb#\xf9{?'
tRp783
ag8
(g10
S'\x88\xb5\x92\x8b\xf5wz?'
tRp784
ag8
(g10
S'\x89\x10\xf7\xc6\x1b\xd7w?'
tRp785
ag8
(g10
S'\x92\xff\x9a\xf6\xb8\xf0s?'
tRp786
ag8
(g10
S'0\xe16\xcbW\xe1n?'
tRp787
ag8
(g10
S'y\xca\x07\xbd\\\xddd?'
tRp788
ag8
(g10
S'\x0b\x93\x1aTK\x1aW?'
tRp789
ag8
(g10
S'\x9d\xa6\xc4\x97I\xea\x17\xbf'
tRp790
ag8
(g10
S'\xe3`\xfd`F\x80M\xbf'
tRp791
ag8
(g10
S'a7\xf8\x8e\xd9\xc5[\xbf'
tRp792
ag8
(g10
S'\x81\xb0)J\xc8\xc3c\xbf'
tRp793
ag8
(g10
S'w\xef\xe2\xe3\x0fIf\xbf'
tRp794
aag571
asS'pos'
p795
(lp796
(lp797
F0.50705045920739977
aF0.50710349585802117
aF0.50732771887661099
aF0.50754156425534203
aF0.50773897877676344
aF0.50790088882657558
aF0.5080768563271798
aF0.50833197963286358
aF0.50843004338759812
aF0.50864843957264316
aF0.50892264256106656
aF0.50900068588875924
aF0.50918980215216514
aF0.50941641241667879
aF0.50941641241667879
aF0.50984898306550663
aF0.50984898306550663
aF0.50984898306550663
aF0.51033191973461323
aF0.51033191973461323
aF0.51084377909704903
aF0.51084377909704903
aF0.51138235801744936
aF0.51138235801744936
aF0.51208241133522681
aF0.51236084639930735
aF0.51264392278917814
aF0.51293139623344874
aF0.51322304366419746
aF0.51353358507673219
aF0.51381806637910554
aF0.51413632421601674
aF0.51442748562189544
aF0.51479976728930443
aF0.51505032447596688
aF0.51538238495045452
aF0.51570164037176081
aF0.51600752912111958
aF0.51633220166897165
aF0.51665957663074946
aF0.5169896545315662
aF0.51732239988279272
aF0.51769151661718049
aF0.51799576846169371
aF0.518370604072101
aF0.5186766885740498
aF0.51901644463232088
aF0.51925571586949071
aF0.51943393138755467
aF0.51949839854684687
aF0.51944705941469449
aF0.51925442029254609
aF0.51889643885565051
aF0.51835284277231242
aF0.51761171942389939
aF0.51666185545885446
aF0.51550252623796489
aF0.51411436523434728
aF0.5124918775630346
aF0.51061335245901152
aF0.50836124295376617
aF0.50608131961244351
aF0.50325747528862086
aF0.50029459664306619
aF0.49720957075673261
aF0.49344415349519821
aF0.48953826905717168
aF0.48528631372786862
aF0.48095244891155176
aF0.47579888650889846
aF0.47024361053111347
aF0.46487110244566932
aF0.45885371627287663
aF0.45245644012050351
aF0.44601515448251039
aF0.43922999249504968
aF0.43131437667729672
aF0.42337608591161663
aF0.41508370765870073
aF0.40650979889800021
aF0.39681242900215263
aF0.387824215390912
aF0.37690529267382233
aF0.3695847958961474
aF0.35997728656014033
aF0.35223694149883317
aF0.34142091953082671
aF0.33387254526262594
aF0.32515688533364107
aF0.31372201422029317
aF0.30757183086370593
aF0.30077055063909403
aF0.29266785871341167
aF0.2852535060167653
aF0.27741996890573806
aF0.27155288623864715
aF0.26482336015230423
aF0.25725058459386146
aF0.25173021586796007
aF0.24431325768613035
aF0.23883433060158252
aF0.23235585733752342
aF0.22581207540510081
aF0.21849442529292126
aF0.21239824558508125
aF0.20513324833859151
aF0.19770002247737944
aF0.19118509497350206
aF0.18268766505017417
aF0.1759209889246745
aF0.16753108569239505
aF0.16021980701514266
aF0.15327019388675164
aF0.14555088322428861
aF0.13747804478793035
aF0.13023381938479101
aF0.12194241989613262
aF0.11415818203522771
aF0.10723543834767141
aF0.10078574929919815
aF0.092701154886619619
aF0.086831991086984125
aF0.079359671240092772
aF0.07333315660385549
aF0.066378844845778384
aF0.059810577656221706
aF0.053593799977917918
aF0.046394881513475358
aF0.04048477075070471
aF0.033885305154503019
aF0.025902286903537328
aF0.020202170162123785
aF0.013444228277188967
aF0.0069735974359702267
aF0.00045599164624753356
aF-0.0067850809170985123
aF-0.013702872995417831
aF-0.021319635266958605
aF-0.027880407966428343
aF-0.034404159248384497
aF-0.041891081897050507
aF-0.048285879478555171
aF-0.054930914850397902
aF-0.0618164686786144
aF-0.068288799405537517
aF-0.074036717853359621
aF-0.080351170269309935
aF-0.086598594222428743
aF-0.092792467553257513
aF-0.09894756606752253
aF-0.10568239357674496
aF-0.11117279297740851
aF-0.11725982560607616
aF-0.12364133471161112
aF-0.12941130687288957
aF-0.13730185697194527
aF-0.14184958932565372
aF-0.14790795755415576
aF-0.15365363567751378
aF-0.15998316606150301
aF-0.16538855152022319
aF-0.17166263823506628
aF-0.17789093955403329
aF-0.18376541528962775
aF-0.18928947179107344
aF-0.19590205981854461
aF-0.2010227743255428
aF-0.20638038503123476
aF-0.21224793913295412
aF-0.21805606410233649
aF-0.22298967157998836
aF-0.22896183141623147
aF-0.23433762507234218
aF-0.2391378849602159
aF-0.24443014114443992
aF-0.25019798864814147
aF-0.25538356902050252
aF-0.26051344588939762
aF-0.26558726499166835
aF-0.27010963260669696
aF-0.2753280697956379
aF-0.28024573698915722
aF-0.28487300151341011
aF-0.28993588123729869
aF-0.29518463584225901
aF-0.29920307284151831
aF-0.3043548836185806
aF-0.30852793691712699
aF-0.31334842705714744
aF-0.31788794363182254
aF-0.32214640493175606
aF-0.32656647399784527
aF-0.33179271706079699
aF-0.33586836076583637
aF-0.3398923450656316
aF-0.34386482535857027
aF-0.34778628247450621
aF-0.35206593059512881
aF-0.35608017218760485
aF-0.36023018036722115
aF-0.36373403216320271
aF-0.36756245817278421
aF-0.37150869853586083
aF-0.37501450049523405
aF-0.37899631742392609
aF-0.38272365108980733
aF-0.38603326614160649
aF-0.38911887098991904
aF-0.39249172655086401
aF-0.3959684968908469
aF-0.39889591075067238
aF-0.40239813728351037
aF-0.40535807348890379
aF-0.40824579381023263
aF-0.41105697014193299
aF-0.41105697014193299
aF-0.41630063280124602
aF-0.41630063280124602
aF-0.42151153770104699
aF-0.42151153770104699
aF-0.42685605125276849
aF-0.42685605125276849
aF-0.43225718329937207
aa(lp798
F0.14436600597474089
aF0.14436185701520737
aF0.14433582291162592
aF0.14430933728138395
aF0.14428167604370454
aF0.14425591388894754
aF0.14422403020354779
aF0.14417011554265977
aF0.14414759215461403
aF0.14409485325874727
aF0.14402546929361362
aF0.14400533768577511
aF0.14395629183242087
aF0.14389752624364791
aF0.14389752624364791
aF0.14378717681695696
aF0.14378717681695696
aF0.14378717681695696
aF0.1436692328225955
aF0.1436692328225955
aF0.14355219037755282
aF0.14355219037755282
aF0.14343819918751299
aF0.14343819918751299
aF0.14330381752175958
aF0.14325481013866964
aF0.1432075329166512
aF0.14316208841570666
aF0.14311853950766903
aF0.14307487525085161
aF0.1430371097325128
aF0.14299734693999788
aF0.1429630830175132
aF0.14292231291832661
aF0.14289652775627934
aF0.1428646577029202
aF0.14283623481033789
aF0.14281094991355095
aF0.14278610047211493
aF0.1427629319635243
aF0.14274132277754073
aF0.14272117193640141
aF0.14270061338486154
aF0.14268489755386835
aF0.14266713207769166
aF0.1426485871958349
aF0.1426648281064703
aF0.14273702197274957
aF0.14291330062312435
aF0.14317599654611352
aF0.14356529309509619
aF0.14412396711252534
aF0.14485885956026703
aF0.14579169007451995
aF0.14693750786262083
aF0.14830319075951476
aF0.14989342630835059
aF0.1517307108451777
aF0.1538169943932525
aF0.15617579028156481
aF0.15894884568396941
aF0.16171341195647457
aF0.16508846503083255
aF0.16858973038428096
aF0.17219849323349792
aF0.17655724232645104
aF0.1810394775691414
aF0.18588169482029926
aF0.19078826378347749
aF0.19658929124419608
aF0.2028094766824427
aF0.20879623658397875
aF0.21547415175329604
aF0.22254731223315899
aF0.22964560126326933
aF0.23710013129147631
aF0.24577472063439038
aF0.25446811937910352
aF0.26358414168100319
aF0.27308920768244349
aF0.28396374146901526
aF0.29414563097720098
aF0.30664319629697723
aF0.31510197707753146
aF0.3262917482462408
aF0.33538817873306354
aF0.34822422406546066
aF0.35726955743520317
aF0.36781080751335521
aF0.38180727272830378
aF0.38942514491846747
aF0.39791748240199926
aF0.40814493273556202
aF0.41758788858264206
aF0.42759803675667529
aF0.43506333002806702
aF0.44351054637582649
aF0.45275397015198204
aF0.45923425083243002
aF0.46751303748619372
aF0.47328855254656271
aF0.47965808675943344
aF0.48558771879747087
aF0.49155320493934423
aF0.49602972646689852
aF0.50075580888266624
aF0.50496411976422484
aF0.50813505599229158
aF0.51164335459157517
aF0.51397027963112407
aF0.51627314528751389
aF0.51780473370196289
aF0.51883901974779667
aF0.51953419048928695
aF0.51979249781672343
aF0.51963182978524569
aF0.51906185445695296
aF0.51816955813941046
aF0.51714840429661935
aF0.51603976335056112
aF0.51448086841382235
aF0.51327215865621734
aF0.51168789171683093
aF0.51041239470105326
aF0.50898884640694764
aF0.5077346065129611
aF0.5066602546265222
aF0.50558414070465596
aF0.50484107986349169
aF0.50415642246336079
aF0.50351815259753363
aF0.50317747021271697
aF0.50286645220833237
aF0.50262918258079292
aF0.50241948517880664
aF0.50218730531928923
aF0.50193432186803877
aF0.50158027314815956
aF0.50118226161164048
aF0.50068140151154183
aF0.49993664098261059
aF0.49913499094129954
aF0.49810327384071668
aF0.49680558241290651
aF0.49536544370140589
aF0.49388445997877828
aF0.49205763971466143
aF0.49005402997320785
aF0.48788971335843961
aF0.4855759656539857
aF0.48288068149157432
aF0.48057391004019723
aF0.47792258470718302
aF0.47505980166230966
aF0.47241977211719377
aF0.4687535434683256
aF0.46662317194405978
aF0.46377397914160429
aF0.46106671758969098
aF0.45807134331985361
aF0.4555036263355523
aF0.45250024916972315
aF0.44948672342797202
aF0.44660384953191812
aF0.44384522213912847
aF0.44047086125264701
aF0.43779195719588804
aF0.43491365767171819
aF0.43165996042071814
aF0.42831177850104474
aF0.42535910162656537
aF0.42162221993239452
aF0.41809826212375345
aF0.41483167167024199
aF0.41110113255974445
aF0.40687672677110753
aF0.40293352716258757
aF0.39889802631441595
aF0.39477630079212617
aF0.39099605377317692
aF0.38650014058757909
aF0.38214893754867235
aF0.37796307588190897
aF0.37328457708092866
aF0.36833353155281462
aF0.3644797496446075
aF0.35946289231227829
aF0.35533532981117255
aF0.35049871505618452
aF0.34586361504044144
aF0.34143357549134867
aF0.33673819953874484
aF0.33105238673698745
aF0.3265031666143467
aF0.32190565113201547
aF0.3172581674890822
aF0.31256335860416784
aF0.30732258198572299
aF0.3022719684194129
aF0.29691164841572965
aF0.29226895399755926
aF0.28706069615750668
aF0.28153334058856816
aF0.27648539377252807
aF0.27058317140755123
aF0.26490307496288151
aF0.25971981350434736
aF0.2547777797213287
aF0.24924789921184282
aF0.24340920721374293
aF0.23838059716493065
aF0.23220774019953691
aF0.22685641618165989
aF0.22147966233186561
aF0.21607779745557421
aF0.21607779745557421
aF0.20545429969760981
aF0.20545429969760981
aF0.1940519956054248
aF0.1940519956054248
aF0.1814449641715766
aF0.1814449641715766
aF0.16784363057700979
aa(lp799
F0.039994154092589142
aF0.040585794570562918
aF0.041842631186695567
aF0.04384157403275258
aF0.046479609553176593
aF0.049102196221852565
aF0.052814648745718042
aF0.060777791337102351
aF0.064289514985021112
aF0.072855408179922837
aF0.084673269101337004
aF0.08834665107032777
aF0.097231251891787218
aF0.10825608481502526
aF0.10825608481502526
aF0.12959470679006249
aF0.12959470679006249
aF0.12959470679006249
aF0.15396045675524306
aF0.15396045675524306
aF0.18066100064559248
aF0.18066100064559248
aF0.20911982745410848
aF0.20911982745410848
aF0.24565179325915093
aF0.26016678116020442
aF0.27487818838325651
aF0.2897732559540861
aF0.30484007243232647
aF0.32087354949897146
aF0.33544500270649458
aF0.35178293161597318
aF0.36661224514359259
aF0.38571406533020058
aF0.39827113100697209
aF0.41510797856072684
aF0.43120741641267729
aF0.44654859102874106
aF0.46282503995549085
aF0.47918356258098549
aF0.49561885461151339
aF0.5121259840775757
aF0.53045084021512368
aF0.54533737113076697
aF0.56372909658682935
aF0.57852958114474839
aF0.59623526550225903
aF0.61103011009089536
aF0.62675310324490208
aF0.64028355183249808
aF0.65326141388125103
aF0.6661883135512614
aF0.67841929853336558
aF0.68998975300158072
aF0.7008640124182286
aF0.71098431511702287
aF0.72018022394696057
aF0.72856043605549758
aF0.7360416903531396
aF0.7427760855949157
aF0.74895620521441275
aF0.75361839878217651
aF0.75805672858333784
aF0.76124719576591016
aF0.76353001056599645
aF0.76565817571225803
aF0.76694747482156456
aF0.76780773280188686
aF0.76791511025565529
aF0.76748650909471183
aF0.76665137230481284
aF0.76551692651961456
aF0.7639592991436106
aF0.76208619309552439
aF0.76011401841232673
aF0.75785909171552146
aF0.75520174398538342
aF0.75258883386411424
aF0.74995521998721182
aF0.74714715167580215
aF0.74402299398546123
aF0.74108062077521097
aF0.7373594827101223
aF0.7350428478674782
aF0.73177727276143478
aF0.72936785923900338
aF0.72613654574481945
aF0.72394628523636317
aF0.72171036998530236
aF0.71903939073486545
aF0.71791234584214203
aF0.71657600026342527
aF0.71534906262119879
aF0.71453932698561939
aF0.71411819354615291
aF0.71390691269619633
aF0.71395166498382689
aF0.71432579038172028
aF0.71497197821142289
aF0.7162117390085283
aF0.71713422860334308
aF0.71859764748161015
aF0.72022308537779434
aF0.72248367228578703
aF0.72436453569844195
aF0.72686099206285637
aF0.72952482335943103
aF0.73209578143594556
aF0.73543454059418245
aF0.73798736939168752
aF0.74137244852569395
aF0.74433170430692652
aF0.74735360326520373
aF0.7508894554461093
aF0.75464796758592623
aF0.75818639929429454
aF0.76215872095068049
aF0.76621191445594028
aF0.76989442164241018
aF0.77337239041160155
aF0.77796273879828926
aF0.78137658439526159
aF0.78585839163647897
aF0.78945135573104774
aF0.79362754693556348
aF0.79767816832942384
aF0.80154165405086775
aF0.80603971190798207
aF0.80962806106826712
aF0.81340348146374331
aF0.81767517526188871
aF0.82070697636050993
aF0.82418405203980694
aF0.82733275641523241
aF0.83052120157504983
aF0.83395966154288415
aF0.83695594650945215
aF0.84023186441325826
aF0.84308970372181702
aF0.8457662615441025
aF0.84889016519494342
aF0.85143166649014179
aF0.85428699072628489
aF0.85729154655034034
aF0.8599590100030301
aF0.86249478219592768
aF0.86517175367565269
aF0.86779564955804334
aF0.87030867995700945
aF0.8728010793297365
aF0.87557976260456927
aF0.87775909384790951
aF0.88010924910801491
aF0.8826453895496581
aF0.8847887784734273
aF0.88771038242379186
aF0.88932985665888853
aF0.89158965395500345
aF0.89373275583888778
aF0.89606103096058387
aF0.89788133944884996
aF0.90014901688844351
aF0.90219008707201842
aF0.90409705112913663
aF0.90591400523204857
aF0.9080949001688291
aF0.90982989821352511
aF0.91160423545351832
aF0.91344187457285952
aF0.9153685081358951
aF0.91689013574631206
aF0.9189827110140143
aF0.92103382347662599
aF0.92282580278336157
aF0.92479666868988608
aF0.9267630695237199
aF0.92843643462767111
aF0.93000430891029662
aF0.93146056593097049
aF0.93265206959491476
aF0.93422454744164074
aF0.93581870555091673
aF0.93735383226720437
aF0.93901912192827652
aF0.94069238472356398
aF0.94204610670528388
aF0.94392074720413699
aF0.94537962572259771
aF0.94699655023456741
aF0.94852256477652885
aF0.94994278177864555
aF0.95156705397321129
aF0.95325126706127272
aF0.95469020708861752
aF0.95610393088152135
aF0.95752109042464228
aF0.95905882010683552
aF0.96063191579230955
aF0.96206740380120215
aF0.96363757189378951
aF0.96494193308096388
aF0.96639110863785849
aF0.9680547532864815
aF0.96952084570626085
aF0.97138004701154745
aF0.97299047592999366
aF0.97450423884541948
aF0.97589792038943701
aF0.97735743295490152
aF0.97886664486905128
aF0.98001453680833683
aF0.98156281924241873
aF0.98274467476443761
aF0.98400265395207753
aF0.98520716603944558
aF0.98520716603944558
aF0.98739145191944444
aF0.98739145191944444
aF0.99003071495528194
aF0.99003071495528194
aF0.99269503474243803
aF0.99269503474243803
aF0.99503784419211805
aa(lp800
F-0.052410619100974297
aF-0.052412162902168706
aF-0.052561091863752983
aF-0.052616048689560289
aF-0.052815789932505436
aF-0.053007824653046161
aF-0.053223615602748242
aF-0.053479591156586091
aF-0.053759784831586846
aF-0.054069190054794415
aF-0.054579455880842793
aF-0.054579455880842793
aF-0.054951183234747424
aF-0.055546661893299938
aF-0.055755894808817701
aF-0.056410391613839886
aF-0.056877763901581176
aF-0.057107598864844226
aF-0.057841166587106557
aF-0.058090663169354941
aF-0.058847957992454188
aF-0.059131963316765131
aF-0.05968420721949589
aF-0.060486367984584559
aF-0.060787076322357345
aF-0.061362090252408276
aF-0.061943670539021944
aF-0.062539956468279895
aF-0.063142958556911877
aF-0.063745294855271334
aF-0.064363098293899287
aF-0.064984101687024523
aF-0.065614746555533704
aF-0.066577475128408142
aF-0.06689898108981876
aF-0.067545900369301831
aF-0.068204758100609025
aF-0.06886141872401691
aF-0.069526189505181912
aF-0.070194002115654505
aF-0.070865118710354474
aF-0.071542252384642346
aF-0.072565488809721218
aF-0.07290693935098301
aF-0.073935826670999905
aF-0.072904867078759789
aF-0.068874143640600446
aF-0.067142377368695189
aF-0.061637007539499321
aF-0.060072616780916341
aF-0.056641117071592424
aF-0.054302628607907473
aF-0.051473423585050998
aF-0.048403963981166538
aF-0.046247473449664088
aF-0.043888586836504803
aF-0.041611338594324067
aF-0.038464347713204679
aF-0.03625956658099852
aF-0.034219784923079581
aF-0.032592768266987697
aF-0.0311613066975025
aF-0.029404533759080313
aF-0.026292546801538662
aF-0.026544681577741914
aF-0.024019611631967086
aF-0.023216853736227741
aF-0.020380466500806459
aF-0.019740280025454238
aF-0.018738825345259762
aF-0.018646053712567931
aF-0.01703068526535325
aF-0.015781942554080004
aF-0.015322561830203547
aF-0.015303529591085187
aF-0.015563291827097994
aF-0.014906489723257203
aF-0.014072861005116254
aF-0.014984494335764004
aF-0.015627856838775604
aF-0.016927649019194305
aF-0.016521832163039367
aF-0.016595338530017455
aF-0.016192022548573673
aF-0.015534866743650603
aF-0.015223241526003102
aF-0.013647270177867477
aF-0.013365966505646752
aF-0.012315176766258559
aF-0.010282071736416232
aF-0.008920917619709123
aF-0.0083057289683467709
aF-0.0082876616049749139
aF-0.0076613844246832038
aF-0.0075540616334962641
aF-0.0080148259527828003
aF-0.0081921779172198662
aF-0.0076040437576110863
aF-0.0082807009757351804
aF-0.0087421331658888383
aF-0.0087684162771938592
aF-0.0090354824405556675
aF-0.0085908895428102559
aF-0.0088323154985989472
aF-0.0085488646527493457
aF-0.007221658037710992
aF-0.0061326358120719982
aF-0.0046542625559553219
aF-0.0033675955465066439
aF-0.0029434626959249557
aF0.00020975781052459772
aF0.0015936185614351154
aF0.0021136923104355583
aF0.003401672565189349
aF0.0042198286815009912
aF0.004832178881678079
aF0.0043669189176060814
aF0.0049898385383594195
aF0.0039595322528242181
aF0.0036247877280377941
aF0.0034299644905822378
aF0.0031016939959730935
aF0.0028316169521484086
aF0.0027998348293112947
aF0.0026819909913725895
aF0.0024397850726826146
aF0.0033014719093980936
aF0.0036507579699295955
aF0.0039319812791838325
aF0.00413516954723522
aF0.0036692188257554832
aF0.0041871040493093427
aF0.0042849135817546813
aF0.0045028410420383013
aF0.0044704836347938381
aF0.004546775397794852
aF0.0037325895761317592
aF0.0041489025119032423
aF0.004599772303487429
aF0.004364179294664392
aF0.0043972555473437156
aF0.0044706552838484721
aF0.0046998494239742132
aF0.0042377072309127501
aF0.0040036452796421837
aF0.0035732040662283704
aF0.0039114712977496701
aF0.0043046326771659016
aF0.0046062003005091475
aF0.0051520068435424813
aF0.004774576579834806
aF0.0048358969042311814
aF0.0051970449547351942
aF0.0050548285114844094
aF0.0055635245289058699
aF0.0064155394615413724
aF0.0062047866716671294
aF0.0064978347802653741
aF0.0064001191346514334
aF0.005812529570679628
aF0.0055051217182896222
aF0.0048352279930667591
aF0.004267246472769313
aF0.0039003489591580361
aF0.0037185850938682256
aF0.0029130095528896302
aF0.0028179651306698495
aF0.0030297163458785476
aF0.0037542990203537586
aF0.0036170297109169871
aF0.0033228627625717191
aF0.0038819931733595301
aF0.0040771675111541108
aF0.0040391142161133754
aF0.0044958315188254284
aF0.0044480912353938558
aF0.0041577242330141295
aF0.004138955449187201
aF0.0047471293758501766
aF0.0046870584485120773
aF0.0053406444732474086
aF0.0041911427435054206
aF0.0037619303812781923
aF0.0032184866134893284
aF0.0033599173722036742
aF0.003219175290302466
aF0.0031216981328447365
aF0.0033482311924750005
aF0.002642434466732181
aF0.0021825114878876754
aF0.0016186781530772179
aF0.0012836429952323798
aF0.00062741624081751805
aF0.00062791707894927786
aF0.00098753920836874344
aF0.001603550409803132
aF0.0019817926255540912
aF0.0022018142043042457
aF0.0017602111210013682
aF0.00099363411519845816
aF0.001119547149188076
aF0.00183877008193234
aF0.00171954993066466
aF0.0014369328831016594
aF0.0013524190003465135
aF0.0022970893124504808
aF0.0032238519468182673
aF0.0030050979703291521
aF0.0028140489314809423
aF0.0027135879412901586
aF0.001939422616863636
aF0.0024505672340568827
aF0.0021182482924644651
aF0.0020994173508738132
aF0.0020470702408827558
aF0.0025788907669296447
aF0.0028165690516921602
aF0.0032536210943783094
aF0.0021524758941814629
aF0.0019490304126224499
aF0.0017848215642838454
aF0.0021293581474884889
aF0.0023811164661060097
aas.